
./tests/machinecode/extern.o:     file format elf64-littleaarch64

SYMBOL TABLE:
0000000000000000 g     F .text	000000000000005c trap_handler
0000000000000000 g     F .text	0000000000000000 func_0
0000000000000000 g     F .text	0000000000000000 func_1
000000000000005c g     F .text	0000000000000184 func_2
00000000000001e0 g     F .text	00000000000001d8 func_3
00000000000003b8 g     F .text	00000000000003c8 func_4
0000000000000780 g     F .text	00000000000007f4 func_5
0000000000000f74 g     F .text	000000000000010c func_6
0000000000001080 g     F .text	000000000000003c func_7
00000000000010bc g     F .text	000000000000009c func_8
0000000000001158 g     F .text	00000000000000b4 increment
000000000000120c g     F .text	00000000000000a0 simplePrint
00000000000012ac g     F .text	00000000000000a0 mixedPrint
000000000000134c g     F .text	00000000000000a0 complexPrint
00000000000013ec g     F .text	00000000000000a0 _start
0000000000000000 g     O .rodata	0000000000000008 globals


Contents of section .text:
 0000 e01f80d2 11000014 200080d2 0f000014  ........ .......
 0010 a00080d2 0d000014 c00080d2 0b000014  ................
 0020 600080d2 09000014 800080d2 07000014  `...............
 0030 200180d2 05000014 400080d2 03000014   .......@.......
 0040 000180d2 01000014 094b91d2 090aa0f2  .........K......
 0050 a90ac0f2 0900e0f2 20011fd6 fd7bbfa9  ........ ....{..
 0060 fd030091 f353bfa9 136494d2 d316a0f2  .....S...d......
 0070 b30ac0f2 736a7ff8 f36333cb 140080d2  ....sj...c3.....
 0080 1408a0f2 7f0214eb cbfdff54 ff4300d1  ...........T.C..
 0090 e01300b9 ff0f00b9 ff0b00b9 086294d2  .............b..
 00a0 c816a0f2 a80ac0f2 08697ff8 08010091  .........i......
 00b0 08697ff8 09028052 0801094b e80f00b9  .i.....R...K....
 00c0 e80f40b9 096294d2 c916a0f2 a90ac0f2  ..@..b..........
 00d0 29697ff8 29010091 28693ff8 e80f40b9  )i..)...(i?...@.
 00e0 e91340b9 0a6c94d2 ca16a0f2 aa0ac0f2  ..@..l..........
 00f0 4a697ff8 2afaff34 08310091 0b7094d2  Ji..*..4.1...p..
 0100 cb16a0f2 ab0ac0f2 6b697fb8 6b110051  ........ki..k..Q
 0110 1f010b6b 28f9ff54 496928b8 e80f40b9  ...k(..TIi(...@.
 0120 096c94d2 c916a0f2 a90ac0f2 29697ff8  .l..........)i..
 0130 49f8ffb4 08310091 0a7094d2 ca16a0f2  I....1...p......
 0140 aa0ac0f2 4a697fb8 4a110051 1f010a6b  ....Ji..J..Q...k
 0150 48f7ff54 2969a8b8 e003092a ff0301d1  H..T)i.....*....
 0160 e82703a9 ea2f02a9 ec3701a9 ee3f00a9  .'.../...7...?..
 0170 083087d2 280ba0f2 a80ac0f2 0800e0f2  .0..(...........
 0180 00013fd6 e82743a9 ea2f42a9 ec3741a9  ..?..'C../B..7A.
 0190 ee3f40a9 ff030191 e80300aa e80b00b9  .?@.............
 01a0 e80f40b9 09028052 0801090b 096294d2  ..@....R.....b..
 01b0 c916a0f2 a90ac0f2 29697ff8 29010091  ........)i..)...
 01c0 28693ff8 e80b40b9 3f0000b4 e003082a  (i?...@.?......*
 01d0 ff430091 f353c1a8 fd7bc1a8 c0035fd6  .C...S...{...._.
 01e0 fd7bbfa9 fd030091 f353bfa9 136494d2  .{.......S...d..
 01f0 d316a0f2 b30ac0f2 736a7ff8 f36333cb  ........sj...c3.
 0200 140080d2 1408a0f2 7f0214eb abf1ff54  ...............T
 0210 ff4300d1 ff1300b9 ff0f00b9 086294d2  .C...........b..
 0220 c816a0f2 a80ac0f2 08697ff8 08010091  .........i......
 0230 08697ff8 09028052 0801094b e81300b9  .i.....R...K....
 0240 e81340b9 096294d2 c916a0f2 a90ac0f2  ..@..b..........
 0250 29697ff8 29010091 28693ff8 e81340b9  )i..)...(i?...@.
 0260 e9ff9fd2 e9ffbff2 e9ffdff2 e9ffeff2  ................
 0270 0a6c94d2 ca16a0f2 aa0ac0f2 4a697ff8  .l..........Ji..
 0280 caedffb4 08210091 0b7094d2 cb16a0f2  .....!...p......
 0290 ab0ac0f2 6b697fb8 6b210051 1f010b6b  ....ki..k!.Q...k
 02a0 c8ecff54 496928f8 e81340b9 49008052  ...TIi(...@.I..R
 02b0 0a6c94d2 ca16a0f2 aa0ac0f2 4a697ff8  .l..........Ji..
 02c0 caebff34 08110091 0b7094d2 cb16a0f2  ...4.....p......
 02d0 ab0ac0f2 6b697fb8 6b110051 1f010b6b  ....ki..k..Q...k
 02e0 c8eaff54 496928b8 e81340b9 29008052  ...TIi(...@.)..R
 02f0 0a6c94d2 ca16a0f2 aa0ac0f2 4a697ff8  .l..........Ji..
 0300 cae9ff34 0b7094d2 cb16a0f2 ab0ac0f2  ...4.p..........
 0310 6b697fb8 6b110051 1f010b6b e8e8ff54  ki..k..Q...k...T
 0320 496928b8 48838052 e91340b9 e103092a  Ii(.H..R..@....*
 0330 e003082a ff0301d1 e82703a9 ea2f02a9  ...*.....'.../..
 0340 ec3701a9 ee3f00a9 88bb87d2 280ba0f2  .7...?......(...
 0350 a80ac0f2 0800e0f2 00013fd6 e82743a9  ..........?..'C.
 0360 ea2f42a9 ec3741a9 ee3f40a9 ff030191  ./B..7A..?@.....
 0370 e80300aa e80f00b9 e81340b9 09028052  ..........@....R
 0380 0801090b 096294d2 c916a0f2 a90ac0f2  .....b..........
 0390 29697ff8 29010091 28693ff8 e80f40b9  )i..)...(i?...@.
 03a0 3f0000b4 e003082a ff430091 f353c1a8  ?......*.C...S..
 03b0 fd7bc1a8 c0035fd6 fd7bbfa9 fd030091  .{...._..{......
 03c0 f353bfa9 136494d2 d316a0f2 b30ac0f2  .S...d..........
 03d0 736a7ff8 f36333cb 140080d2 1408a0f2  sj...c3.........
 03e0 7f0214eb ebe2ff54 ff4300d1 ff1300b9  .......T.C......
 03f0 ff0f00b9 086294d2 c816a0f2 a80ac0f2  .....b..........
 0400 08697ff8 08010091 08697ff8 09088052  .i.......i.....R
 0410 0801094b e81300b9 e81340b9 096294d2  ...K......@..b..
 0420 c916a0f2 a90ac0f2 29697ff8 29010091  ........)i..)...
 0430 28693ff8 e81340b9 09028052 0801090b  (i?...@....R....
 0440 894682d2 0a6c94d2 ca16a0f2 aa0ac0f2  .F...l..........
 0450 4a697ff8 2adfffb4 0b7094d2 cb16a0f2  Ji..*....p......
 0460 ab0ac0f2 6b697fb8 6b210051 1f010b6b  ....ki..k!.Q...k
 0470 48deff54 496928f8 e81340b9 e9dd97d2  H..TIi(...@.....
 0480 0a6c94d2 ca16a0f2 aa0ac0f2 4a697ff8  .l..........Ji..
 0490 4addffb4 08210091 0b7094d2 cb16a0f2  J....!...p......
 04a0 ab0ac0f2 6b697fb8 6b210051 1f010b6b  ....ki..k!.Q...k
 04b0 48dcff54 496928f8 e81340b9 a9d59bd2  H..TIi(...@.....
 04c0 0a6c94d2 ca16a0f2 aa0ac0f2 4a697ff8  .l..........Ji..
 04d0 4adbffb4 0b7094d2 cb16a0f2 ab0ac0f2  J....p..........
 04e0 6b697fb8 6b210051 1f010b6b 68daff54  ki..k!.Q...kh..T
 04f0 496928f8 88808052 e91340b9 e103092a  Ii(....R..@....*
 0500 e003082a ff0301d1 e82703a9 ea2f02a9  ...*.....'.../..
 0510 ec3701a9 ee3f00a9 88bb87d2 280ba0f2  .7...?......(...
 0520 a80ac0f2 0800e0f2 00013fd6 e82743a9  ..........?..'C.
 0530 ea2f42a9 ec3741a9 ee3f40a9 ff030191  ./B..7A..?@.....
 0540 e80300aa e81340b9 89078052 0801090b  ......@....R....
 0550 89ff9f52 e9ffbf72 0a6c94d2 ca16a0f2  ...R...r.l......
 0560 aa0ac0f2 4a697ff8 8ad6ff34 0b7094d2  ....Ji.....4.p..
 0570 cb16a0f2 ab0ac0f2 6b697fb8 6b110051  ........ki..k..Q
 0580 1f010b6b a8d5ff54 496928b8 e81340b9  ...k...TIi(...@.
 0590 09078052 0801090b a9ff9f52 e9ffbf72  ...R.......R...r
 05a0 0a6c94d2 ca16a0f2 aa0ac0f2 4a697ff8  .l..........Ji..
 05b0 4ad4ff34 0b7094d2 cb16a0f2 ab0ac0f2  J..4.p..........
 05c0 6b697fb8 6b110051 1f010b6b 68d3ff54  ki..k..Q...kh..T
 05d0 496928b8 e81340b9 09068052 0801090b  Ii(...@....R....
 05e0 e9dd97d2 0a6c94d2 ca16a0f2 aa0ac0f2  .....l..........
 05f0 4a697ff8 2ad2ffb4 0b7094d2 cb16a0f2  Ji..*....p......
 0600 ab0ac0f2 6b697fb8 6b210051 1f010b6b  ....ki..k!.Q...k
 0610 48d1ff54 496928f8 e81340b9 e9ff9fd2  H..TIi(...@.....
 0620 e9ffbff2 e9ffdff2 e9ffeff2 0a6c94d2  .............l..
 0630 ca16a0f2 aa0ac0f2 4a697ff8 eacfffb4  ........Ji......
 0640 08a10091 0b7094d2 cb16a0f2 ab0ac0f2  .....p..........
 0650 6b697fb8 6b210051 1f010b6b e8ceff54  ki..k!.Q...k...T
 0660 496928f8 e81340b9 49008052 0a6c94d2  Ii(...@.I..R.l..
 0670 ca16a0f2 aa0ac0f2 4a697ff8 eacdff34  ........Ji.....4
 0680 08910091 0b7094d2 cb16a0f2 ab0ac0f2  .....p..........
 0690 6b697fb8 6b110051 1f010b6b e8ccff54  ki..k..Q...k...T
 06a0 496928b8 e81340b9 29008052 0a6c94d2  Ii(...@.)..R.l..
 06b0 ca16a0f2 aa0ac0f2 4a697ff8 eacbff34  ........Ji.....4
 06c0 08810091 0b7094d2 cb16a0f2 ab0ac0f2  .....p..........
 06d0 6b697fb8 6b110051 1f010b6b e8caff54  ki..k..Q...k...T
 06e0 496928b8 c8848052 e91340b9 0a048052  Ii(....R..@....R
 06f0 29010a0b e103092a e003082a ff0301d1  )......*...*....
 0700 e82703a9 ea2f02a9 ec3701a9 ee3f00a9  .'.../...7...?..
 0710 88bb87d2 280ba0f2 a80ac0f2 0800e0f2  ....(...........
 0720 00013fd6 e82743a9 ea2f42a9 ec3741a9  ..?..'C../B..7A.
 0730 ee3f40a9 ff030191 e80300aa e80f00b9  .?@.............
 0740 e81340b9 09088052 0801090b 096294d2  ..@....R.....b..
 0750 c916a0f2 a90ac0f2 29697ff8 29010091  ........)i..)...
 0760 28693ff8 e80f40b9 3f0000b4 e003082a  (i?...@.?......*
 0770 ff430091 f353c1a8 fd7bc1a8 c0035fd6  .C...S...{...._.
 0780 fd7bbfa9 fd030091 f353bfa9 136494d2  .{.......S...d..
 0790 d316a0f2 b30ac0f2 736a7ff8 f36333cb  ........sj...c3.
 07a0 140080d2 1408a0f2 7f0214eb abc4ff54  ...............T
 07b0 ff4300d1 ff1300b9 ff0f00b9 086294d2  .C...........b..
 07c0 c816a0f2 a80ac0f2 08697ff8 08010091  .........i......
 07d0 08697ff8 090e8052 0801094b e81300b9  .i.....R...K....
 07e0 e81340b9 096294d2 c916a0f2 a90ac0f2  ..@..b..........
 07f0 29697ff8 29010091 28693ff8 888d8052  )i..)...(i?....R
 0800 09008052 e103092a e003082a ff0301d1  ...R...*...*....
 0810 e82703a9 ea2f02a9 ec3701a9 ee3f00a9  .'.../...7...?..
 0820 88bb87d2 280ba0f2 a80ac0f2 0800e0f2  ....(...........
 0830 00013fd6 e82743a9 ea2f42a9 ec3741a9  ..?..'C../B..7A.
 0840 ee3f40a9 ff030191 e80300aa e81340b9  .?@...........@.
 0850 c9fe9f52 e9ffbf72 0a6c94d2 ca16a0f2  ...R...r.l......
 0860 aa0ac0f2 4a697ff8 8abeff34 08310091  ....Ji.....4.1..
 0870 0b7094d2 cb16a0f2 ab0ac0f2 6b697fb8  .p..........ki..
 0880 6b110051 1f010b6b 88bdff54 496928b8  k..Q...k...TIi(.
 0890 e81340b9 69008052 0a6c94d2 ca16a0f2  ..@.i..R.l......
 08a0 aa0ac0f2 4a697ff8 8abcff34 08210091  ....Ji.....4.!..
 08b0 0b7094d2 cb16a0f2 ab0ac0f2 6b697fb8  .p..........ki..
 08c0 6b110051 1f010b6b 88bbff54 496928b8  k..Q...k...TIi(.
 08d0 e81340b9 49008052 0a6c94d2 ca16a0f2  ..@.I..R.l......
 08e0 aa0ac0f2 4a697ff8 8abaff34 08110091  ....Ji.....4....
 08f0 0b7094d2 cb16a0f2 ab0ac0f2 6b697fb8  .p..........ki..
 0900 6b110051 1f010b6b 88b9ff54 496928b8  k..Q...k...TIi(.
 0910 e81340b9 29008052 0a6c94d2 ca16a0f2  ..@.)..R.l......
 0920 aa0ac0f2 4a697ff8 8ab8ff34 0b7094d2  ....Ji.....4.p..
 0930 cb16a0f2 ab0ac0f2 6b697fb8 6b110051  ........ki..k..Q
 0940 1f010b6b a8b7ff54 496928b8 488f8052  ...k...TIi(.H..R
 0950 e91340b9 e103092a e003082a ff0301d1  ..@....*...*....
 0960 e82703a9 ea2f02a9 ec3701a9 ee3f00a9  .'.../...7...?..
 0970 88bb87d2 280ba0f2 a80ac0f2 0800e0f2  ....(...........
 0980 00013fd6 e82743a9 ea2f42a9 ec3741a9  ..?..'C../B..7A.
 0990 ee3f40a9 ff030191 e80300aa e81340b9  .?@...........@.
 09a0 c9ff9f52 e9ffbf72 0a6c94d2 ca16a0f2  ...R...r.l......
 09b0 aa0ac0f2 4a697ff8 0ab4ff34 08710091  ....Ji.....4.q..
 09c0 0b7094d2 cb16a0f2 ab0ac0f2 6b697fb8  .p..........ki..
 09d0 6b110051 1f010b6b 08b3ff54 496928b8  k..Q...k...TIi(.
 09e0 e81340b9 e9ff9f52 e9ffbf72 0a6c94d2  ..@....R...r.l..
 09f0 ca16a0f2 aa0ac0f2 4a697ff8 eab1ff34  ........Ji.....4
 0a00 08610091 0b7094d2 cb16a0f2 ab0ac0f2  .a...p..........
 0a10 6b697fb8 6b110051 1f010b6b e8b0ff54  ki..k..Q...k...T
 0a20 496928b8 e81340b9 49088052 0a6c94d2  Ii(...@.I..R.l..
 0a30 ca16a0f2 aa0ac0f2 4a697ff8 eaafff34  ........Ji.....4
 0a40 08510091 0b7094d2 cb16a0f2 ab0ac0f2  .Q...p..........
 0a50 6b697fb8 6b110051 1f010b6b e8aeff54  ki..k..Q...k...T
 0a60 496928b8 e81340b9 29088052 0a6c94d2  Ii(...@.)..R.l..
 0a70 ca16a0f2 aa0ac0f2 4a697ff8 eaadff34  ........Ji.....4
 0a80 08410091 0b7094d2 cb16a0f2 ab0ac0f2  .A...p..........
 0a90 6b697fb8 6b110051 1f010b6b e8acff54  ki..k..Q...k...T
 0aa0 496928b8 088b8052 e91340b9 0a028052  Ii(....R..@....R
 0ab0 29010a0b e103092a e003082a ff0301d1  )......*...*....
 0ac0 e82703a9 ea2f02a9 ec3701a9 ee3f00a9  .'.../...7...?..
 0ad0 88bb87d2 280ba0f2 a80ac0f2 0800e0f2  ....(...........
 0ae0 00013fd6 e82743a9 ea2f42a9 ec3741a9  ..?..'C../B..7A.
 0af0 ee3f40a9 ff030191 e80300aa e81340b9  .?@...........@.
 0b00 c9ff9f52 e9ffbf72 0a6c94d2 ca16a0f2  ...R...r.l......
 0b10 aa0ac0f2 4a697ff8 0aa9ff34 08a10091  ....Ji.....4....
 0b20 0b7094d2 cb16a0f2 ab0ac0f2 6b697fb8  .p..........ki..
 0b30 6b110051 1f010b6b 08a8ff54 496928b8  k..Q...k...TIi(.
 0b40 e81340b9 e9ff9f52 e9ffbf72 0a6c94d2  ..@....R...r.l..
 0b50 ca16a0f2 aa0ac0f2 4a697ff8 eaa6ff34  ........Ji.....4
 0b60 08910091 0b7094d2 cb16a0f2 ab0ac0f2  .....p..........
 0b70 6b697fb8 6b110051 1f010b6b e8a5ff54  ki..k..Q...k...T
 0b80 496928b8 e81340b9 09808052 0a6c94d2  Ii(...@....R.l..
 0b90 ca16a0f2 aa0ac0f2 4a697ff8 eaa4ff34  ........Ji.....4
 0ba0 08810091 0b7094d2 cb16a0f2 ab0ac0f2  .....p..........
 0bb0 6b697fb8 6b110051 1f010b6b e8a3ff54  ki..k..Q...k...T
 0bc0 496928b8 a8888052 e91340b9 0a048052  Ii(....R..@....R
 0bd0 29010a0b e103092a e003082a ff0301d1  )......*...*....
 0be0 e82703a9 ea2f02a9 ec3701a9 ee3f00a9  .'.../...7...?..
 0bf0 88bb87d2 280ba0f2 a80ac0f2 0800e0f2  ....(...........
 0c00 00013fd6 e82743a9 ea2f42a9 ec3741a9  ..?..'C../B..7A.
 0c10 ee3f40a9 ff030191 e80300aa e81340b9  .?@...........@.
 0c20 09088052 0801090b 894682d2 0a6c94d2  ...R.....F...l..
 0c30 ca16a0f2 aa0ac0f2 4a697ff8 ea9fffb4  ........Ji......
 0c40 0b7094d2 cb16a0f2 ab0ac0f2 6b697fb8  .p..........ki..
 0c50 6b210051 1f010b6b 089fff54 496928f8  k!.Q...k...TIi(.
 0c60 e81340b9 e9dd97d2 0a6c94d2 ca16a0f2  ..@......l......
 0c70 aa0ac0f2 4a697ff8 0a9effb4 08e10091  ....Ji..........
 0c80 0b7094d2 cb16a0f2 ab0ac0f2 6b697fb8  .p..........ki..
 0c90 6b210051 1f010b6b 089dff54 496928f8  k!.Q...k...TIi(.
 0ca0 e81340b9 a9d59bd2 0a6c94d2 ca16a0f2  ..@......l......
 0cb0 aa0ac0f2 4a697ff8 0a9cffb4 08c10091  ....Ji..........
 0cc0 0b7094d2 cb16a0f2 ab0ac0f2 6b697fb8  .p..........ki..
 0cd0 6b210051 1f010b6b 089bff54 496928f8  k!.Q...k...TIi(.
 0ce0 88808052 e91340b9 0a068052 29010a0b  ...R..@....R)...
 0cf0 e103092a e003082a ff0301d1 e82703a9  ...*...*.....'..
 0d00 ea2f02a9 ec3701a9 ee3f00a9 88bb87d2  ./...7...?......
 0d10 280ba0f2 a80ac0f2 0800e0f2 00013fd6  (.............?.
 0d20 e82743a9 ea2f42a9 ec3741a9 ee3f40a9  .'C../B..7A..?@.
 0d30 ff030191 e80300aa e81340b9 890d8052  ..........@....R
 0d40 0801090b 89ff9f52 e9ffbf72 0a6c94d2  .......R...r.l..
 0d50 ca16a0f2 aa0ac0f2 4a697ff8 ea96ff34  ........Ji.....4
 0d60 0b7094d2 cb16a0f2 ab0ac0f2 6b697fb8  .p..........ki..
 0d70 6b110051 1f010b6b 0896ff54 496928b8  k..Q...k...TIi(.
 0d80 e81340b9 090d8052 0801090b a9ff9f52  ..@....R.......R
 0d90 e9ffbf72 0a6c94d2 ca16a0f2 aa0ac0f2  ...r.l..........
 0da0 4a697ff8 aa94ff34 0b7094d2 cb16a0f2  Ji.....4.p......
 0db0 ab0ac0f2 6b697fb8 6b110051 1f010b6b  ....ki..k..Q...k
 0dc0 c893ff54 496928b8 e81340b9 090c8052  ...TIi(...@....R
 0dd0 0801090b e9dd97d2 0a6c94d2 ca16a0f2  .........l......
 0de0 aa0ac0f2 4a697ff8 8a92ffb4 0b7094d2  ....Ji.......p..
 0df0 cb16a0f2 ab0ac0f2 6b697fb8 6b210051  ........ki..k!.Q
 0e00 1f010b6b a891ff54 496928f8 e81340b9  ...k...TIi(...@.
 0e10 e9ff9fd2 e9ffbff2 e9ffdff2 e9ffeff2  ................
 0e20 0a6c94d2 ca16a0f2 aa0ac0f2 4a697ff8  .l..........Ji..
 0e30 4a90ffb4 08610191 0b7094d2 cb16a0f2  J....a...p......
 0e40 ab0ac0f2 6b697fb8 6b210051 1f010b6b  ....ki..k!.Q...k
 0e50 488fff54 496928f8 e81340b9 49008052  H..TIi(...@.I..R
 0e60 0a6c94d2 ca16a0f2 aa0ac0f2 4a697ff8  .l..........Ji..
 0e70 4a8eff34 08510191 0b7094d2 cb16a0f2  J..4.Q...p......
 0e80 ab0ac0f2 6b697fb8 6b110051 1f010b6b  ....ki..k..Q...k
 0e90 488dff54 496928b8 e81340b9 29008052  H..TIi(...@.)..R
 0ea0 0a6c94d2 ca16a0f2 aa0ac0f2 4a697ff8  .l..........Ji..
 0eb0 4a8cff34 08410191 0b7094d2 cb16a0f2  J..4.A...p......
 0ec0 ab0ac0f2 6b697fb8 6b110051 1f010b6b  ....ki..k..Q...k
 0ed0 488bff54 496928b8 c8848052 e91340b9  H..TIi(....R..@.
 0ee0 0a0a8052 29010a0b e103092a e003082a  ...R)......*...*
 0ef0 ff0301d1 e82703a9 ea2f02a9 ec3701a9  .....'.../...7..
 0f00 ee3f00a9 88bb87d2 280ba0f2 a80ac0f2  .?......(.......
 0f10 0800e0f2 00013fd6 e82743a9 ea2f42a9  ......?..'C../B.
 0f20 ec3741a9 ee3f40a9 ff030191 e80300aa  .7A..?@.........
 0f30 e80f00b9 e81340b9 090e8052 0801090b  ......@....R....
 0f40 096294d2 c916a0f2 a90ac0f2 29697ff8  .b..........)i..
 0f50 29010091 28693ff8 e80f40b9 3f0000b4  )...(i?...@.?...
 0f60 e003082a ff430091 f353c1a8 fd7bc1a8  ...*.C...S...{..
 0f70 c0035fd6 fd7bbfa9 fd030091 f353bfa9  .._..{.......S..
 0f80 136494d2 d316a0f2 b30ac0f2 736a7ff8  .d..........sj..
 0f90 f36333cb 140080d2 1408a0f2 7f0214eb  .c3.............
 0fa0 0b85ff54 08008052 e003082a ff0301d1  ...T...R...*....
 0fb0 e82703a9 ea2f02a9 ec3701a9 ee3f00a9  .'.../...7...?..
 0fc0 27fcff97 e82743a9 ea2f42a9 ec3741a9  '....'C../B..7A.
 0fd0 ee3f40a9 ff030191 e80300aa ff0301d1  .?@.............
 0fe0 e82703a9 ea2f02a9 ec3701a9 ee3f00a9  .'.../...7...?..
 0ff0 7cfcff97 e82743a9 ea2f42a9 ec3741a9  |....'C../B..7A.
 1000 ee3f40a9 ff030191 e80300aa ff0301d1  .?@.............
 1010 e82703a9 ea2f02a9 ec3701a9 ee3f00a9  .'.../...7...?..
 1020 e6fcff97 e82743a9 ea2f42a9 ec3741a9  .....'C../B..7A.
 1030 ee3f40a9 ff030191 e80300aa ff0301d1  .?@.............
 1040 e82703a9 ea2f02a9 ec3701a9 ee3f00a9  .'.../...7...?..
 1050 ccfdff97 e82743a9 ea2f42a9 ec3741a9  .....'C../B..7A.
 1060 ee3f40a9 ff030191 e80300aa 3f0000b4  .?@.........?...
 1070 e003082a f353c1a8 fd7bc1a8 c0035fd6  ...*.S...{...._.
 1080 fd7bbfa9 fd030091 f353bfa9 136494d2  .{.......S...d..
 1090 d316a0f2 b30ac0f2 736a7ff8 f36333cb  ........sj...c3.
 10a0 140080d2 1408a0f2 7f0214eb ab7cff54  .............|.T
 10b0 f353c1a8 fd7bc1a8 c0035fd6 fd7bbfa9  .S...{...._..{..
 10c0 fd030091 f353bfa9 136494d2 d316a0f2  .....S...d......
 10d0 b30ac0f2 736a7ff8 f36333cb 140080d2  ....sj...c3.....
 10e0 1408a0f2 7f0214eb cb7aff54 ff0301d1  .........z.T....
 10f0 e82703a9 ea2f02a9 ec3701a9 ee3f00a9  .'.../...7...?..
 1100 e0ffff97 e82743a9 ea2f42a9 ec3741a9  .....'C../B..7A.
 1110 ee3f40a9 ff030191 e80300aa ff0301d1  .?@.............
 1120 e82703a9 ea2f02a9 ec3701a9 ee3f00a9  .'.../...7...?..
 1130 d4ffff97 e82743a9 ea2f42a9 ec3741a9  .....'C../B..7A.
 1140 ee3f40a9 ff030191 e90300aa f353c1a8  .?@..........S..
 1150 fd7bc1a8 c0035fd6 fd7bbfa9 fd030091  .{...._..{......
 1160 f353bfa9 136494d2 d316a0f2 b30ac0f2  .S...d..........
 1170 736a7ff8 f36333cb 140080d2 1408a0f2  sj...c3.........
 1180 7f0214eb eb75ff54 ff4300d1 e01300b9  .....u.T.C......
 1190 e81340b9 e003082a ff0301d1 e82703a9  ..@....*.....'..
 11a0 ea2f02a9 ec3701a9 ee3f00a9 acfbff97  ./...7...?......
 11b0 e82743a9 ea2f42a9 ec3741a9 ee3f40a9  .'C../B..7A..?@.
 11c0 ff030191 e80300aa ff0301d1 e82703a9  .............'..
 11d0 ea2f02a9 ec3701a9 ee3f00a9 b8ffff97  ./...7...?......
 11e0 e82743a9 ea2f42a9 ec3741a9 ee3f40a9  .'C../B..7A..?@.
 11f0 ff030191 e90300aa e003092a ff430091  ...........*.C..
 1200 f353c1a8 fd7bc1a8 c0035fd6 fd7bbfa9  .S...{...._..{..
 1210 fd030091 f353bfa9 136494d2 d316a0f2  .....S...d......
 1220 b30ac0f2 736a7ff8 f36333cb 140080d2  ....sj...c3.....
 1230 1408a0f2 7f0214eb 4b70ff54 ff0301d1  ........Kp.T....
 1240 e82703a9 ea2f02a9 ec3701a9 ee3f00a9  .'.../...7...?..
 1250 e4fbff97 e82743a9 ea2f42a9 ec3741a9  .....'C../B..7A.
 1260 ee3f40a9 ff030191 e80300aa ff0301d1  .?@.............
 1270 e82703a9 ea2f02a9 ec3701a9 ee3f00a9  .'.../...7...?..
 1280 8fffff97 e82743a9 ea2f42a9 ec3741a9  .....'C../B..7A.
 1290 ee3f40a9 ff030191 e90300aa e003092a  .?@............*
 12a0 f353c1a8 fd7bc1a8 c0035fd6 fd7bbfa9  .S...{...._..{..
 12b0 fd030091 f353bfa9 136494d2 d316a0f2  .....S...d......
 12c0 b30ac0f2 736a7ff8 f36333cb 140080d2  ....sj...c3.....
 12d0 1408a0f2 7f0214eb 4b6bff54 ff0301d1  ........Kk.T....
 12e0 e82703a9 ea2f02a9 ec3701a9 ee3f00a9  .'.../...7...?..
 12f0 32fcff97 e82743a9 ea2f42a9 ec3741a9  2....'C../B..7A.
 1300 ee3f40a9 ff030191 e80300aa ff0301d1  .?@.............
 1310 e82703a9 ea2f02a9 ec3701a9 ee3f00a9  .'.../...7...?..
 1320 67ffff97 e82743a9 ea2f42a9 ec3741a9  g....'C../B..7A.
 1330 ee3f40a9 ff030191 e90300aa e003092a  .?@............*
 1340 f353c1a8 fd7bc1a8 c0035fd6 fd7bbfa9  .S...{...._..{..
 1350 fd030091 f353bfa9 136494d2 d316a0f2  .....S...d......
 1360 b30ac0f2 736a7ff8 f36333cb 140080d2  ....sj...c3.....
 1370 1408a0f2 7f0214eb 4b66ff54 ff0301d1  ........Kf.T....
 1380 e82703a9 ea2f02a9 ec3701a9 ee3f00a9  .'.../...7...?..
 1390 fcfcff97 e82743a9 ea2f42a9 ec3741a9  .....'C../B..7A.
 13a0 ee3f40a9 ff030191 e80300aa ff0301d1  .?@.............
 13b0 e82703a9 ea2f02a9 ec3701a9 ee3f00a9  .'.../...7...?..
 13c0 3fffff97 e82743a9 ea2f42a9 ec3741a9  ?....'C../B..7A.
 13d0 ee3f40a9 ff030191 e90300aa e003092a  .?@............*
 13e0 f353c1a8 fd7bc1a8 c0035fd6 fd7bbfa9  .S...{...._..{..
 13f0 fd030091 f353bfa9 136494d2 d316a0f2  .....S...d......
 1400 b30ac0f2 736a7ff8 f36333cb 140080d2  ....sj...c3.....
 1410 1408a0f2 7f0214eb 4b61ff54 ff0301d1  ........Ka.T....
 1420 e82703a9 ea2f02a9 ec3701a9 ee3f00a9  .'.../...7...?..
 1430 d1feff97 e82743a9 ea2f42a9 ec3741a9  .....'C../B..7A.
 1440 ee3f40a9 ff030191 e80300aa ff0301d1  .?@.............
 1450 e82703a9 ea2f02a9 ec3701a9 ee3f00a9  .'.../...7...?..
 1460 17ffff97 e82743a9 ea2f42a9 ec3741a9  .....'C../B..7A.
 1470 ee3f40a9 ff030191 e90300aa e003092a  .?@............*
 1480 f353c1a8 fd7bc1a8 c0035fd6           .S...{...._.    
Contents of section .data:
 0000 a0240000 00000000                    .$......        

Disassembly of section .text:

0000000000000000 <trap_handler>:
       0:	d2801fe0 	mov	x0, #0xff                  	// #255
       4:	14000011 	b	48 <trap_handler+0x48>
       8:	d2800020 	mov	x0, #0x1                   	// #1
       c:	1400000f 	b	48 <trap_handler+0x48>
      10:	d28000a0 	mov	x0, #0x5                   	// #5
      14:	1400000d 	b	48 <trap_handler+0x48>
      18:	d28000c0 	mov	x0, #0x6                   	// #6
      1c:	1400000b 	b	48 <trap_handler+0x48>
      20:	d2800060 	mov	x0, #0x3                   	// #3
      24:	14000009 	b	48 <trap_handler+0x48>
      28:	d2800080 	mov	x0, #0x4                   	// #4
      2c:	14000007 	b	48 <trap_handler+0x48>
      30:	d2800120 	mov	x0, #0x9                   	// #9
      34:	14000005 	b	48 <trap_handler+0x48>
      38:	d2800040 	mov	x0, #0x2                   	// #2
      3c:	14000003 	b	48 <trap_handler+0x48>
      40:	d2800100 	mov	x0, #0x8                   	// #8
      44:	14000001 	b	48 <trap_handler+0x48>
      48:	d2914b09 	mov	x9, #0x8a58                	// #35416
      4c:	f2a00a09 	movk	x9, #0x50, lsl #16
      50:	f2c00aa9 	movk	x9, #0x55, lsl #32
      54:	f2e00009 	movk	x9, #0x0, lsl #48
      58:	d61f0120 	br	x9

000000000000005c <func_2>:
      5c:	a9bf7bfd 	stp	x29, x30, [sp, #-16]!
      60:	910003fd 	mov	x29, sp
      64:	a9bf53f3 	stp	x19, x20, [sp, #-16]!
      68:	d2946413 	mov	x19, #0xa320                	// #41760
      6c:	f2a016d3 	movk	x19, #0xb6, lsl #16
      70:	f2c00ab3 	movk	x19, #0x55, lsl #32
      74:	f87f6a73 	ldr	x19, [x19, xzr]
      78:	cb3363f3 	sub	x19, sp, x19
      7c:	d2800014 	mov	x20, #0x0                   	// #0
      80:	f2a00814 	movk	x20, #0x40, lsl #16
      84:	eb14027f 	cmp	x19, x20
      88:	54fffdcb 	b.lt	40 <trap_handler+0x40>  // b.tstop
      8c:	d10043ff 	sub	sp, sp, #0x10
      90:	b90013e0 	str	w0, [sp, #16]
      94:	b9000fff 	str	wzr, [sp, #12]
      98:	b9000bff 	str	wzr, [sp, #8]
      9c:	d2946208 	mov	x8, #0xa310                	// #41744
      a0:	f2a016c8 	movk	x8, #0xb6, lsl #16
      a4:	f2c00aa8 	movk	x8, #0x55, lsl #32
      a8:	f87f6908 	ldr	x8, [x8, xzr]
      ac:	91000108 	add	x8, x8, #0x0
      b0:	f87f6908 	ldr	x8, [x8, xzr]
      b4:	52800209 	mov	w9, #0x10                  	// #16
      b8:	4b090108 	sub	w8, w8, w9
      bc:	b9000fe8 	str	w8, [sp, #12]
      c0:	b9400fe8 	ldr	w8, [sp, #12]
      c4:	d2946209 	mov	x9, #0xa310                	// #41744
      c8:	f2a016c9 	movk	x9, #0xb6, lsl #16
      cc:	f2c00aa9 	movk	x9, #0x55, lsl #32
      d0:	f87f6929 	ldr	x9, [x9, xzr]
      d4:	91000129 	add	x9, x9, #0x0
      d8:	f83f6928 	str	x8, [x9, xzr]
      dc:	b9400fe8 	ldr	w8, [sp, #12]
      e0:	b94013e9 	ldr	w9, [sp, #16]
      e4:	d2946c0a 	mov	x10, #0xa360                	// #41824
      e8:	f2a016ca 	movk	x10, #0xb6, lsl #16
      ec:	f2c00aaa 	movk	x10, #0x55, lsl #32
      f0:	f87f694a 	ldr	x10, [x10, xzr]
      f4:	34fffa2a 	cbz	w10, 38 <trap_handler+0x38>
      f8:	91003108 	add	x8, x8, #0xc
      fc:	d294700b 	mov	x11, #0xa380                	// #41856
     100:	f2a016cb 	movk	x11, #0xb6, lsl #16
     104:	f2c00aab 	movk	x11, #0x55, lsl #32
     108:	b87f696b 	ldr	w11, [x11, xzr]
     10c:	5100116b 	sub	w11, w11, #0x4
     110:	6b0b011f 	cmp	w8, w11
     114:	54fff928 	b.hi	38 <trap_handler+0x38>  // b.pmore
     118:	b8286949 	str	w9, [x10, x8]
     11c:	b9400fe8 	ldr	w8, [sp, #12]
     120:	d2946c09 	mov	x9, #0xa360                	// #41824
     124:	f2a016c9 	movk	x9, #0xb6, lsl #16
     128:	f2c00aa9 	movk	x9, #0x55, lsl #32
     12c:	f87f6929 	ldr	x9, [x9, xzr]
     130:	b4fff849 	cbz	x9, 38 <trap_handler+0x38>
     134:	91003108 	add	x8, x8, #0xc
     138:	d294700a 	mov	x10, #0xa380                	// #41856
     13c:	f2a016ca 	movk	x10, #0xb6, lsl #16
     140:	f2c00aaa 	movk	x10, #0x55, lsl #32
     144:	b87f694a 	ldr	w10, [x10, xzr]
     148:	5100114a 	sub	w10, w10, #0x4
     14c:	6b0a011f 	cmp	w8, w10
     150:	54fff748 	b.hi	38 <trap_handler+0x38>  // b.pmore
     154:	b8a86929 	ldrsw	x9, [x9, x8]
     158:	2a0903e0 	mov	w0, w9
     15c:	d10103ff 	sub	sp, sp, #0x40
     160:	a90327e8 	stp	x8, x9, [sp, #48]
     164:	a9022fea 	stp	x10, x11, [sp, #32]
     168:	a90137ec 	stp	x12, x13, [sp, #16]
     16c:	a9003fee 	stp	x14, x15, [sp]
     170:	d2873008 	mov	x8, #0x3980                	// #14720
     174:	f2a00b28 	movk	x8, #0x59, lsl #16
     178:	f2c00aa8 	movk	x8, #0x55, lsl #32
     17c:	f2e00008 	movk	x8, #0x0, lsl #48
     180:	d63f0100 	blr	x8
     184:	a94327e8 	ldp	x8, x9, [sp, #48]
     188:	a9422fea 	ldp	x10, x11, [sp, #32]
     18c:	a94137ec 	ldp	x12, x13, [sp, #16]
     190:	a9403fee 	ldp	x14, x15, [sp]
     194:	910103ff 	add	sp, sp, #0x40
     198:	aa0003e8 	mov	x8, x0
     19c:	b9000be8 	str	w8, [sp, #8]
     1a0:	b9400fe8 	ldr	w8, [sp, #12]
     1a4:	52800209 	mov	w9, #0x10                  	// #16
     1a8:	0b090108 	add	w8, w8, w9
     1ac:	d2946209 	mov	x9, #0xa310                	// #41744
     1b0:	f2a016c9 	movk	x9, #0xb6, lsl #16
     1b4:	f2c00aa9 	movk	x9, #0x55, lsl #32
     1b8:	f87f6929 	ldr	x9, [x9, xzr]
     1bc:	91000129 	add	x9, x9, #0x0
     1c0:	f83f6928 	str	x8, [x9, xzr]
     1c4:	b9400be8 	ldr	w8, [sp, #8]
     1c8:	b400003f 	cbz	xzr, 1cc <func_2+0x170>
     1cc:	2a0803e0 	mov	w0, w8
     1d0:	910043ff 	add	sp, sp, #0x10
     1d4:	a8c153f3 	ldp	x19, x20, [sp], #16
     1d8:	a8c17bfd 	ldp	x29, x30, [sp], #16
     1dc:	d65f03c0 	ret

00000000000001e0 <func_3>:
     1e0:	a9bf7bfd 	stp	x29, x30, [sp, #-16]!
     1e4:	910003fd 	mov	x29, sp
     1e8:	a9bf53f3 	stp	x19, x20, [sp, #-16]!
     1ec:	d2946413 	mov	x19, #0xa320                	// #41760
     1f0:	f2a016d3 	movk	x19, #0xb6, lsl #16
     1f4:	f2c00ab3 	movk	x19, #0x55, lsl #32
     1f8:	f87f6a73 	ldr	x19, [x19, xzr]
     1fc:	cb3363f3 	sub	x19, sp, x19
     200:	d2800014 	mov	x20, #0x0                   	// #0
     204:	f2a00814 	movk	x20, #0x40, lsl #16
     208:	eb14027f 	cmp	x19, x20
     20c:	54fff1ab 	b.lt	40 <trap_handler+0x40>  // b.tstop
     210:	d10043ff 	sub	sp, sp, #0x10
     214:	b90013ff 	str	wzr, [sp, #16]
     218:	b9000fff 	str	wzr, [sp, #12]
     21c:	d2946208 	mov	x8, #0xa310                	// #41744
     220:	f2a016c8 	movk	x8, #0xb6, lsl #16
     224:	f2c00aa8 	movk	x8, #0x55, lsl #32
     228:	f87f6908 	ldr	x8, [x8, xzr]
     22c:	91000108 	add	x8, x8, #0x0
     230:	f87f6908 	ldr	x8, [x8, xzr]
     234:	52800209 	mov	w9, #0x10                  	// #16
     238:	4b090108 	sub	w8, w8, w9
     23c:	b90013e8 	str	w8, [sp, #16]
     240:	b94013e8 	ldr	w8, [sp, #16]
     244:	d2946209 	mov	x9, #0xa310                	// #41744
     248:	f2a016c9 	movk	x9, #0xb6, lsl #16
     24c:	f2c00aa9 	movk	x9, #0x55, lsl #32
     250:	f87f6929 	ldr	x9, [x9, xzr]
     254:	91000129 	add	x9, x9, #0x0
     258:	f83f6928 	str	x8, [x9, xzr]
     25c:	b94013e8 	ldr	w8, [sp, #16]
     260:	d29fffe9 	mov	x9, #0xffff                	// #65535
     264:	f2bfffe9 	movk	x9, #0xffff, lsl #16
     268:	f2dfffe9 	movk	x9, #0xffff, lsl #32
     26c:	f2efffe9 	movk	x9, #0x7fff, lsl #48
     270:	d2946c0a 	mov	x10, #0xa360                	// #41824
     274:	f2a016ca 	movk	x10, #0xb6, lsl #16
     278:	f2c00aaa 	movk	x10, #0x55, lsl #32
     27c:	f87f694a 	ldr	x10, [x10, xzr]
     280:	b4ffedca 	cbz	x10, 38 <trap_handler+0x38>
     284:	91002108 	add	x8, x8, #0x8
     288:	d294700b 	mov	x11, #0xa380                	// #41856
     28c:	f2a016cb 	movk	x11, #0xb6, lsl #16
     290:	f2c00aab 	movk	x11, #0x55, lsl #32
     294:	b87f696b 	ldr	w11, [x11, xzr]
     298:	5100216b 	sub	w11, w11, #0x8
     29c:	6b0b011f 	cmp	w8, w11
     2a0:	54ffecc8 	b.hi	38 <trap_handler+0x38>  // b.pmore
     2a4:	f8286949 	str	x9, [x10, x8]
     2a8:	b94013e8 	ldr	w8, [sp, #16]
     2ac:	52800049 	mov	w9, #0x2                   	// #2
     2b0:	d2946c0a 	mov	x10, #0xa360                	// #41824
     2b4:	f2a016ca 	movk	x10, #0xb6, lsl #16
     2b8:	f2c00aaa 	movk	x10, #0x55, lsl #32
     2bc:	f87f694a 	ldr	x10, [x10, xzr]
     2c0:	34ffebca 	cbz	w10, 38 <trap_handler+0x38>
     2c4:	91001108 	add	x8, x8, #0x4
     2c8:	d294700b 	mov	x11, #0xa380                	// #41856
     2cc:	f2a016cb 	movk	x11, #0xb6, lsl #16
     2d0:	f2c00aab 	movk	x11, #0x55, lsl #32
     2d4:	b87f696b 	ldr	w11, [x11, xzr]
     2d8:	5100116b 	sub	w11, w11, #0x4
     2dc:	6b0b011f 	cmp	w8, w11
     2e0:	54ffeac8 	b.hi	38 <trap_handler+0x38>  // b.pmore
     2e4:	b8286949 	str	w9, [x10, x8]
     2e8:	b94013e8 	ldr	w8, [sp, #16]
     2ec:	52800029 	mov	w9, #0x1                   	// #1
     2f0:	d2946c0a 	mov	x10, #0xa360                	// #41824
     2f4:	f2a016ca 	movk	x10, #0xb6, lsl #16
     2f8:	f2c00aaa 	movk	x10, #0x55, lsl #32
     2fc:	f87f694a 	ldr	x10, [x10, xzr]
     300:	34ffe9ca 	cbz	w10, 38 <trap_handler+0x38>
     304:	d294700b 	mov	x11, #0xa380                	// #41856
     308:	f2a016cb 	movk	x11, #0xb6, lsl #16
     30c:	f2c00aab 	movk	x11, #0x55, lsl #32
     310:	b87f696b 	ldr	w11, [x11, xzr]
     314:	5100116b 	sub	w11, w11, #0x4
     318:	6b0b011f 	cmp	w8, w11
     31c:	54ffe8e8 	b.hi	38 <trap_handler+0x38>  // b.pmore
     320:	b8286949 	str	w9, [x10, x8]
     324:	52808348 	mov	w8, #0x41a                 	// #1050
     328:	b94013e9 	ldr	w9, [sp, #16]
     32c:	2a0903e1 	mov	w1, w9
     330:	2a0803e0 	mov	w0, w8
     334:	d10103ff 	sub	sp, sp, #0x40
     338:	a90327e8 	stp	x8, x9, [sp, #48]
     33c:	a9022fea 	stp	x10, x11, [sp, #32]
     340:	a90137ec 	stp	x12, x13, [sp, #16]
     344:	a9003fee 	stp	x14, x15, [sp]
     348:	d287bb88 	mov	x8, #0x3ddc                	// #15836
     34c:	f2a00b28 	movk	x8, #0x59, lsl #16
     350:	f2c00aa8 	movk	x8, #0x55, lsl #32
     354:	f2e00008 	movk	x8, #0x0, lsl #48
     358:	d63f0100 	blr	x8
     35c:	a94327e8 	ldp	x8, x9, [sp, #48]
     360:	a9422fea 	ldp	x10, x11, [sp, #32]
     364:	a94137ec 	ldp	x12, x13, [sp, #16]
     368:	a9403fee 	ldp	x14, x15, [sp]
     36c:	910103ff 	add	sp, sp, #0x40
     370:	aa0003e8 	mov	x8, x0
     374:	b9000fe8 	str	w8, [sp, #12]
     378:	b94013e8 	ldr	w8, [sp, #16]
     37c:	52800209 	mov	w9, #0x10                  	// #16
     380:	0b090108 	add	w8, w8, w9
     384:	d2946209 	mov	x9, #0xa310                	// #41744
     388:	f2a016c9 	movk	x9, #0xb6, lsl #16
     38c:	f2c00aa9 	movk	x9, #0x55, lsl #32
     390:	f87f6929 	ldr	x9, [x9, xzr]
     394:	91000129 	add	x9, x9, #0x0
     398:	f83f6928 	str	x8, [x9, xzr]
     39c:	b9400fe8 	ldr	w8, [sp, #12]
     3a0:	b400003f 	cbz	xzr, 3a4 <func_3+0x1c4>
     3a4:	2a0803e0 	mov	w0, w8
     3a8:	910043ff 	add	sp, sp, #0x10
     3ac:	a8c153f3 	ldp	x19, x20, [sp], #16
     3b0:	a8c17bfd 	ldp	x29, x30, [sp], #16
     3b4:	d65f03c0 	ret

00000000000003b8 <func_4>:
     3b8:	a9bf7bfd 	stp	x29, x30, [sp, #-16]!
     3bc:	910003fd 	mov	x29, sp
     3c0:	a9bf53f3 	stp	x19, x20, [sp, #-16]!
     3c4:	d2946413 	mov	x19, #0xa320                	// #41760
     3c8:	f2a016d3 	movk	x19, #0xb6, lsl #16
     3cc:	f2c00ab3 	movk	x19, #0x55, lsl #32
     3d0:	f87f6a73 	ldr	x19, [x19, xzr]
     3d4:	cb3363f3 	sub	x19, sp, x19
     3d8:	d2800014 	mov	x20, #0x0                   	// #0
     3dc:	f2a00814 	movk	x20, #0x40, lsl #16
     3e0:	eb14027f 	cmp	x19, x20
     3e4:	54ffe2eb 	b.lt	40 <trap_handler+0x40>  // b.tstop
     3e8:	d10043ff 	sub	sp, sp, #0x10
     3ec:	b90013ff 	str	wzr, [sp, #16]
     3f0:	b9000fff 	str	wzr, [sp, #12]
     3f4:	d2946208 	mov	x8, #0xa310                	// #41744
     3f8:	f2a016c8 	movk	x8, #0xb6, lsl #16
     3fc:	f2c00aa8 	movk	x8, #0x55, lsl #32
     400:	f87f6908 	ldr	x8, [x8, xzr]
     404:	91000108 	add	x8, x8, #0x0
     408:	f87f6908 	ldr	x8, [x8, xzr]
     40c:	52800809 	mov	w9, #0x40                  	// #64
     410:	4b090108 	sub	w8, w8, w9
     414:	b90013e8 	str	w8, [sp, #16]
     418:	b94013e8 	ldr	w8, [sp, #16]
     41c:	d2946209 	mov	x9, #0xa310                	// #41744
     420:	f2a016c9 	movk	x9, #0xb6, lsl #16
     424:	f2c00aa9 	movk	x9, #0x55, lsl #32
     428:	f87f6929 	ldr	x9, [x9, xzr]
     42c:	91000129 	add	x9, x9, #0x0
     430:	f83f6928 	str	x8, [x9, xzr]
     434:	b94013e8 	ldr	w8, [sp, #16]
     438:	52800209 	mov	w9, #0x10                  	// #16
     43c:	0b090108 	add	w8, w8, w9
     440:	d2824689 	mov	x9, #0x1234                	// #4660
     444:	d2946c0a 	mov	x10, #0xa360                	// #41824
     448:	f2a016ca 	movk	x10, #0xb6, lsl #16
     44c:	f2c00aaa 	movk	x10, #0x55, lsl #32
     450:	f87f694a 	ldr	x10, [x10, xzr]
     454:	b4ffdf2a 	cbz	x10, 38 <trap_handler+0x38>
     458:	d294700b 	mov	x11, #0xa380                	// #41856
     45c:	f2a016cb 	movk	x11, #0xb6, lsl #16
     460:	f2c00aab 	movk	x11, #0x55, lsl #32
     464:	b87f696b 	ldr	w11, [x11, xzr]
     468:	5100216b 	sub	w11, w11, #0x8
     46c:	6b0b011f 	cmp	w8, w11
     470:	54ffde48 	b.hi	38 <trap_handler+0x38>  // b.pmore
     474:	f8286949 	str	x9, [x10, x8]
     478:	b94013e8 	ldr	w8, [sp, #16]
     47c:	d297dde9 	mov	x9, #0xbeef                	// #48879
     480:	d2946c0a 	mov	x10, #0xa360                	// #41824
     484:	f2a016ca 	movk	x10, #0xb6, lsl #16
     488:	f2c00aaa 	movk	x10, #0x55, lsl #32
     48c:	f87f694a 	ldr	x10, [x10, xzr]
     490:	b4ffdd4a 	cbz	x10, 38 <trap_handler+0x38>
     494:	91002108 	add	x8, x8, #0x8
     498:	d294700b 	mov	x11, #0xa380                	// #41856
     49c:	f2a016cb 	movk	x11, #0xb6, lsl #16
     4a0:	f2c00aab 	movk	x11, #0x55, lsl #32
     4a4:	b87f696b 	ldr	w11, [x11, xzr]
     4a8:	5100216b 	sub	w11, w11, #0x8
     4ac:	6b0b011f 	cmp	w8, w11
     4b0:	54ffdc48 	b.hi	38 <trap_handler+0x38>  // b.pmore
     4b4:	f8286949 	str	x9, [x10, x8]
     4b8:	b94013e8 	ldr	w8, [sp, #16]
     4bc:	d29bd5a9 	mov	x9, #0xdead                	// #57005
     4c0:	d2946c0a 	mov	x10, #0xa360                	// #41824
     4c4:	f2a016ca 	movk	x10, #0xb6, lsl #16
     4c8:	f2c00aaa 	movk	x10, #0x55, lsl #32
     4cc:	f87f694a 	ldr	x10, [x10, xzr]
     4d0:	b4ffdb4a 	cbz	x10, 38 <trap_handler+0x38>
     4d4:	d294700b 	mov	x11, #0xa380                	// #41856
     4d8:	f2a016cb 	movk	x11, #0xb6, lsl #16
     4dc:	f2c00aab 	movk	x11, #0x55, lsl #32
     4e0:	b87f696b 	ldr	w11, [x11, xzr]
     4e4:	5100216b 	sub	w11, w11, #0x8
     4e8:	6b0b011f 	cmp	w8, w11
     4ec:	54ffda68 	b.hi	38 <trap_handler+0x38>  // b.pmore
     4f0:	f8286949 	str	x9, [x10, x8]
     4f4:	52808088 	mov	w8, #0x404                 	// #1028
     4f8:	b94013e9 	ldr	w9, [sp, #16]
     4fc:	2a0903e1 	mov	w1, w9
     500:	2a0803e0 	mov	w0, w8
     504:	d10103ff 	sub	sp, sp, #0x40
     508:	a90327e8 	stp	x8, x9, [sp, #48]
     50c:	a9022fea 	stp	x10, x11, [sp, #32]
     510:	a90137ec 	stp	x12, x13, [sp, #16]
     514:	a9003fee 	stp	x14, x15, [sp]
     518:	d287bb88 	mov	x8, #0x3ddc                	// #15836
     51c:	f2a00b28 	movk	x8, #0x59, lsl #16
     520:	f2c00aa8 	movk	x8, #0x55, lsl #32
     524:	f2e00008 	movk	x8, #0x0, lsl #48
     528:	d63f0100 	blr	x8
     52c:	a94327e8 	ldp	x8, x9, [sp, #48]
     530:	a9422fea 	ldp	x10, x11, [sp, #32]
     534:	a94137ec 	ldp	x12, x13, [sp, #16]
     538:	a9403fee 	ldp	x14, x15, [sp]
     53c:	910103ff 	add	sp, sp, #0x40
     540:	aa0003e8 	mov	x8, x0
     544:	b94013e8 	ldr	w8, [sp, #16]
     548:	52800789 	mov	w9, #0x3c                  	// #60
     54c:	0b090108 	add	w8, w8, w9
     550:	529fff89 	mov	w9, #0xfffc                	// #65532
     554:	72bfffe9 	movk	w9, #0xffff, lsl #16
     558:	d2946c0a 	mov	x10, #0xa360                	// #41824
     55c:	f2a016ca 	movk	x10, #0xb6, lsl #16
     560:	f2c00aaa 	movk	x10, #0x55, lsl #32
     564:	f87f694a 	ldr	x10, [x10, xzr]
     568:	34ffd68a 	cbz	w10, 38 <trap_handler+0x38>
     56c:	d294700b 	mov	x11, #0xa380                	// #41856
     570:	f2a016cb 	movk	x11, #0xb6, lsl #16
     574:	f2c00aab 	movk	x11, #0x55, lsl #32
     578:	b87f696b 	ldr	w11, [x11, xzr]
     57c:	5100116b 	sub	w11, w11, #0x4
     580:	6b0b011f 	cmp	w8, w11
     584:	54ffd5a8 	b.hi	38 <trap_handler+0x38>  // b.pmore
     588:	b8286949 	str	w9, [x10, x8]
     58c:	b94013e8 	ldr	w8, [sp, #16]
     590:	52800709 	mov	w9, #0x38                  	// #56
     594:	0b090108 	add	w8, w8, w9
     598:	529fffa9 	mov	w9, #0xfffd                	// #65533
     59c:	72bfffe9 	movk	w9, #0xffff, lsl #16
     5a0:	d2946c0a 	mov	x10, #0xa360                	// #41824
     5a4:	f2a016ca 	movk	x10, #0xb6, lsl #16
     5a8:	f2c00aaa 	movk	x10, #0x55, lsl #32
     5ac:	f87f694a 	ldr	x10, [x10, xzr]
     5b0:	34ffd44a 	cbz	w10, 38 <trap_handler+0x38>
     5b4:	d294700b 	mov	x11, #0xa380                	// #41856
     5b8:	f2a016cb 	movk	x11, #0xb6, lsl #16
     5bc:	f2c00aab 	movk	x11, #0x55, lsl #32
     5c0:	b87f696b 	ldr	w11, [x11, xzr]
     5c4:	5100116b 	sub	w11, w11, #0x4
     5c8:	6b0b011f 	cmp	w8, w11
     5cc:	54ffd368 	b.hi	38 <trap_handler+0x38>  // b.pmore
     5d0:	b8286949 	str	w9, [x10, x8]
     5d4:	b94013e8 	ldr	w8, [sp, #16]
     5d8:	52800609 	mov	w9, #0x30                  	// #48
     5dc:	0b090108 	add	w8, w8, w9
     5e0:	d297dde9 	mov	x9, #0xbeef                	// #48879
     5e4:	d2946c0a 	mov	x10, #0xa360                	// #41824
     5e8:	f2a016ca 	movk	x10, #0xb6, lsl #16
     5ec:	f2c00aaa 	movk	x10, #0x55, lsl #32
     5f0:	f87f694a 	ldr	x10, [x10, xzr]
     5f4:	b4ffd22a 	cbz	x10, 38 <trap_handler+0x38>
     5f8:	d294700b 	mov	x11, #0xa380                	// #41856
     5fc:	f2a016cb 	movk	x11, #0xb6, lsl #16
     600:	f2c00aab 	movk	x11, #0x55, lsl #32
     604:	b87f696b 	ldr	w11, [x11, xzr]
     608:	5100216b 	sub	w11, w11, #0x8
     60c:	6b0b011f 	cmp	w8, w11
     610:	54ffd148 	b.hi	38 <trap_handler+0x38>  // b.pmore
     614:	f8286949 	str	x9, [x10, x8]
     618:	b94013e8 	ldr	w8, [sp, #16]
     61c:	d29fffe9 	mov	x9, #0xffff                	// #65535
     620:	f2bfffe9 	movk	x9, #0xffff, lsl #16
     624:	f2dfffe9 	movk	x9, #0xffff, lsl #32
     628:	f2efffe9 	movk	x9, #0x7fff, lsl #48
     62c:	d2946c0a 	mov	x10, #0xa360                	// #41824
     630:	f2a016ca 	movk	x10, #0xb6, lsl #16
     634:	f2c00aaa 	movk	x10, #0x55, lsl #32
     638:	f87f694a 	ldr	x10, [x10, xzr]
     63c:	b4ffcfea 	cbz	x10, 38 <trap_handler+0x38>
     640:	9100a108 	add	x8, x8, #0x28
     644:	d294700b 	mov	x11, #0xa380                	// #41856
     648:	f2a016cb 	movk	x11, #0xb6, lsl #16
     64c:	f2c00aab 	movk	x11, #0x55, lsl #32
     650:	b87f696b 	ldr	w11, [x11, xzr]
     654:	5100216b 	sub	w11, w11, #0x8
     658:	6b0b011f 	cmp	w8, w11
     65c:	54ffcee8 	b.hi	38 <trap_handler+0x38>  // b.pmore
     660:	f8286949 	str	x9, [x10, x8]
     664:	b94013e8 	ldr	w8, [sp, #16]
     668:	52800049 	mov	w9, #0x2                   	// #2
     66c:	d2946c0a 	mov	x10, #0xa360                	// #41824
     670:	f2a016ca 	movk	x10, #0xb6, lsl #16
     674:	f2c00aaa 	movk	x10, #0x55, lsl #32
     678:	f87f694a 	ldr	x10, [x10, xzr]
     67c:	34ffcdea 	cbz	w10, 38 <trap_handler+0x38>
     680:	91009108 	add	x8, x8, #0x24
     684:	d294700b 	mov	x11, #0xa380                	// #41856
     688:	f2a016cb 	movk	x11, #0xb6, lsl #16
     68c:	f2c00aab 	movk	x11, #0x55, lsl #32
     690:	b87f696b 	ldr	w11, [x11, xzr]
     694:	5100116b 	sub	w11, w11, #0x4
     698:	6b0b011f 	cmp	w8, w11
     69c:	54ffcce8 	b.hi	38 <trap_handler+0x38>  // b.pmore
     6a0:	b8286949 	str	w9, [x10, x8]
     6a4:	b94013e8 	ldr	w8, [sp, #16]
     6a8:	52800029 	mov	w9, #0x1                   	// #1
     6ac:	d2946c0a 	mov	x10, #0xa360                	// #41824
     6b0:	f2a016ca 	movk	x10, #0xb6, lsl #16
     6b4:	f2c00aaa 	movk	x10, #0x55, lsl #32
     6b8:	f87f694a 	ldr	x10, [x10, xzr]
     6bc:	34ffcbea 	cbz	w10, 38 <trap_handler+0x38>
     6c0:	91008108 	add	x8, x8, #0x20
     6c4:	d294700b 	mov	x11, #0xa380                	// #41856
     6c8:	f2a016cb 	movk	x11, #0xb6, lsl #16
     6cc:	f2c00aab 	movk	x11, #0x55, lsl #32
     6d0:	b87f696b 	ldr	w11, [x11, xzr]
     6d4:	5100116b 	sub	w11, w11, #0x4
     6d8:	6b0b011f 	cmp	w8, w11
     6dc:	54ffcae8 	b.hi	38 <trap_handler+0x38>  // b.pmore
     6e0:	b8286949 	str	w9, [x10, x8]
     6e4:	528084c8 	mov	w8, #0x426                 	// #1062
     6e8:	b94013e9 	ldr	w9, [sp, #16]
     6ec:	5280040a 	mov	w10, #0x20                  	// #32
     6f0:	0b0a0129 	add	w9, w9, w10
     6f4:	2a0903e1 	mov	w1, w9
     6f8:	2a0803e0 	mov	w0, w8
     6fc:	d10103ff 	sub	sp, sp, #0x40
     700:	a90327e8 	stp	x8, x9, [sp, #48]
     704:	a9022fea 	stp	x10, x11, [sp, #32]
     708:	a90137ec 	stp	x12, x13, [sp, #16]
     70c:	a9003fee 	stp	x14, x15, [sp]
     710:	d287bb88 	mov	x8, #0x3ddc                	// #15836
     714:	f2a00b28 	movk	x8, #0x59, lsl #16
     718:	f2c00aa8 	movk	x8, #0x55, lsl #32
     71c:	f2e00008 	movk	x8, #0x0, lsl #48
     720:	d63f0100 	blr	x8
     724:	a94327e8 	ldp	x8, x9, [sp, #48]
     728:	a9422fea 	ldp	x10, x11, [sp, #32]
     72c:	a94137ec 	ldp	x12, x13, [sp, #16]
     730:	a9403fee 	ldp	x14, x15, [sp]
     734:	910103ff 	add	sp, sp, #0x40
     738:	aa0003e8 	mov	x8, x0
     73c:	b9000fe8 	str	w8, [sp, #12]
     740:	b94013e8 	ldr	w8, [sp, #16]
     744:	52800809 	mov	w9, #0x40                  	// #64
     748:	0b090108 	add	w8, w8, w9
     74c:	d2946209 	mov	x9, #0xa310                	// #41744
     750:	f2a016c9 	movk	x9, #0xb6, lsl #16
     754:	f2c00aa9 	movk	x9, #0x55, lsl #32
     758:	f87f6929 	ldr	x9, [x9, xzr]
     75c:	91000129 	add	x9, x9, #0x0
     760:	f83f6928 	str	x8, [x9, xzr]
     764:	b9400fe8 	ldr	w8, [sp, #12]
     768:	b400003f 	cbz	xzr, 76c <func_4+0x3b4>
     76c:	2a0803e0 	mov	w0, w8
     770:	910043ff 	add	sp, sp, #0x10
     774:	a8c153f3 	ldp	x19, x20, [sp], #16
     778:	a8c17bfd 	ldp	x29, x30, [sp], #16
     77c:	d65f03c0 	ret

0000000000000780 <func_5>:
     780:	a9bf7bfd 	stp	x29, x30, [sp, #-16]!
     784:	910003fd 	mov	x29, sp
     788:	a9bf53f3 	stp	x19, x20, [sp, #-16]!
     78c:	d2946413 	mov	x19, #0xa320                	// #41760
     790:	f2a016d3 	movk	x19, #0xb6, lsl #16
     794:	f2c00ab3 	movk	x19, #0x55, lsl #32
     798:	f87f6a73 	ldr	x19, [x19, xzr]
     79c:	cb3363f3 	sub	x19, sp, x19
     7a0:	d2800014 	mov	x20, #0x0                   	// #0
     7a4:	f2a00814 	movk	x20, #0x40, lsl #16
     7a8:	eb14027f 	cmp	x19, x20
     7ac:	54ffc4ab 	b.lt	40 <trap_handler+0x40>  // b.tstop
     7b0:	d10043ff 	sub	sp, sp, #0x10
     7b4:	b90013ff 	str	wzr, [sp, #16]
     7b8:	b9000fff 	str	wzr, [sp, #12]
     7bc:	d2946208 	mov	x8, #0xa310                	// #41744
     7c0:	f2a016c8 	movk	x8, #0xb6, lsl #16
     7c4:	f2c00aa8 	movk	x8, #0x55, lsl #32
     7c8:	f87f6908 	ldr	x8, [x8, xzr]
     7cc:	91000108 	add	x8, x8, #0x0
     7d0:	f87f6908 	ldr	x8, [x8, xzr]
     7d4:	52800e09 	mov	w9, #0x70                  	// #112
     7d8:	4b090108 	sub	w8, w8, w9
     7dc:	b90013e8 	str	w8, [sp, #16]
     7e0:	b94013e8 	ldr	w8, [sp, #16]
     7e4:	d2946209 	mov	x9, #0xa310                	// #41744
     7e8:	f2a016c9 	movk	x9, #0xb6, lsl #16
     7ec:	f2c00aa9 	movk	x9, #0x55, lsl #32
     7f0:	f87f6929 	ldr	x9, [x9, xzr]
     7f4:	91000129 	add	x9, x9, #0x0
     7f8:	f83f6928 	str	x8, [x9, xzr]
     7fc:	52808d88 	mov	w8, #0x46c                 	// #1132
     800:	52800009 	mov	w9, #0x0                   	// #0
     804:	2a0903e1 	mov	w1, w9
     808:	2a0803e0 	mov	w0, w8
     80c:	d10103ff 	sub	sp, sp, #0x40
     810:	a90327e8 	stp	x8, x9, [sp, #48]
     814:	a9022fea 	stp	x10, x11, [sp, #32]
     818:	a90137ec 	stp	x12, x13, [sp, #16]
     81c:	a9003fee 	stp	x14, x15, [sp]
     820:	d287bb88 	mov	x8, #0x3ddc                	// #15836
     824:	f2a00b28 	movk	x8, #0x59, lsl #16
     828:	f2c00aa8 	movk	x8, #0x55, lsl #32
     82c:	f2e00008 	movk	x8, #0x0, lsl #48
     830:	d63f0100 	blr	x8
     834:	a94327e8 	ldp	x8, x9, [sp, #48]
     838:	a9422fea 	ldp	x10, x11, [sp, #32]
     83c:	a94137ec 	ldp	x12, x13, [sp, #16]
     840:	a9403fee 	ldp	x14, x15, [sp]
     844:	910103ff 	add	sp, sp, #0x40
     848:	aa0003e8 	mov	x8, x0
     84c:	b94013e8 	ldr	w8, [sp, #16]
     850:	529ffec9 	mov	w9, #0xfff6                	// #65526
     854:	72bfffe9 	movk	w9, #0xffff, lsl #16
     858:	d2946c0a 	mov	x10, #0xa360                	// #41824
     85c:	f2a016ca 	movk	x10, #0xb6, lsl #16
     860:	f2c00aaa 	movk	x10, #0x55, lsl #32
     864:	f87f694a 	ldr	x10, [x10, xzr]
     868:	34ffbe8a 	cbz	w10, 38 <trap_handler+0x38>
     86c:	91003108 	add	x8, x8, #0xc
     870:	d294700b 	mov	x11, #0xa380                	// #41856
     874:	f2a016cb 	movk	x11, #0xb6, lsl #16
     878:	f2c00aab 	movk	x11, #0x55, lsl #32
     87c:	b87f696b 	ldr	w11, [x11, xzr]
     880:	5100116b 	sub	w11, w11, #0x4
     884:	6b0b011f 	cmp	w8, w11
     888:	54ffbd88 	b.hi	38 <trap_handler+0x38>  // b.pmore
     88c:	b8286949 	str	w9, [x10, x8]
     890:	b94013e8 	ldr	w8, [sp, #16]
     894:	52800069 	mov	w9, #0x3                   	// #3
     898:	d2946c0a 	mov	x10, #0xa360                	// #41824
     89c:	f2a016ca 	movk	x10, #0xb6, lsl #16
     8a0:	f2c00aaa 	movk	x10, #0x55, lsl #32
     8a4:	f87f694a 	ldr	x10, [x10, xzr]
     8a8:	34ffbc8a 	cbz	w10, 38 <trap_handler+0x38>
     8ac:	91002108 	add	x8, x8, #0x8
     8b0:	d294700b 	mov	x11, #0xa380                	// #41856
     8b4:	f2a016cb 	movk	x11, #0xb6, lsl #16
     8b8:	f2c00aab 	movk	x11, #0x55, lsl #32
     8bc:	b87f696b 	ldr	w11, [x11, xzr]
     8c0:	5100116b 	sub	w11, w11, #0x4
     8c4:	6b0b011f 	cmp	w8, w11
     8c8:	54ffbb88 	b.hi	38 <trap_handler+0x38>  // b.pmore
     8cc:	b8286949 	str	w9, [x10, x8]
     8d0:	b94013e8 	ldr	w8, [sp, #16]
     8d4:	52800049 	mov	w9, #0x2                   	// #2
     8d8:	d2946c0a 	mov	x10, #0xa360                	// #41824
     8dc:	f2a016ca 	movk	x10, #0xb6, lsl #16
     8e0:	f2c00aaa 	movk	x10, #0x55, lsl #32
     8e4:	f87f694a 	ldr	x10, [x10, xzr]
     8e8:	34ffba8a 	cbz	w10, 38 <trap_handler+0x38>
     8ec:	91001108 	add	x8, x8, #0x4
     8f0:	d294700b 	mov	x11, #0xa380                	// #41856
     8f4:	f2a016cb 	movk	x11, #0xb6, lsl #16
     8f8:	f2c00aab 	movk	x11, #0x55, lsl #32
     8fc:	b87f696b 	ldr	w11, [x11, xzr]
     900:	5100116b 	sub	w11, w11, #0x4
     904:	6b0b011f 	cmp	w8, w11
     908:	54ffb988 	b.hi	38 <trap_handler+0x38>  // b.pmore
     90c:	b8286949 	str	w9, [x10, x8]
     910:	b94013e8 	ldr	w8, [sp, #16]
     914:	52800029 	mov	w9, #0x1                   	// #1
     918:	d2946c0a 	mov	x10, #0xa360                	// #41824
     91c:	f2a016ca 	movk	x10, #0xb6, lsl #16
     920:	f2c00aaa 	movk	x10, #0x55, lsl #32
     924:	f87f694a 	ldr	x10, [x10, xzr]
     928:	34ffb88a 	cbz	w10, 38 <trap_handler+0x38>
     92c:	d294700b 	mov	x11, #0xa380                	// #41856
     930:	f2a016cb 	movk	x11, #0xb6, lsl #16
     934:	f2c00aab 	movk	x11, #0x55, lsl #32
     938:	b87f696b 	ldr	w11, [x11, xzr]
     93c:	5100116b 	sub	w11, w11, #0x4
     940:	6b0b011f 	cmp	w8, w11
     944:	54ffb7a8 	b.hi	38 <trap_handler+0x38>  // b.pmore
     948:	b8286949 	str	w9, [x10, x8]
     94c:	52808f48 	mov	w8, #0x47a                 	// #1146
     950:	b94013e9 	ldr	w9, [sp, #16]
     954:	2a0903e1 	mov	w1, w9
     958:	2a0803e0 	mov	w0, w8
     95c:	d10103ff 	sub	sp, sp, #0x40
     960:	a90327e8 	stp	x8, x9, [sp, #48]
     964:	a9022fea 	stp	x10, x11, [sp, #32]
     968:	a90137ec 	stp	x12, x13, [sp, #16]
     96c:	a9003fee 	stp	x14, x15, [sp]
     970:	d287bb88 	mov	x8, #0x3ddc                	// #15836
     974:	f2a00b28 	movk	x8, #0x59, lsl #16
     978:	f2c00aa8 	movk	x8, #0x55, lsl #32
     97c:	f2e00008 	movk	x8, #0x0, lsl #48
     980:	d63f0100 	blr	x8
     984:	a94327e8 	ldp	x8, x9, [sp, #48]
     988:	a9422fea 	ldp	x10, x11, [sp, #32]
     98c:	a94137ec 	ldp	x12, x13, [sp, #16]
     990:	a9403fee 	ldp	x14, x15, [sp]
     994:	910103ff 	add	sp, sp, #0x40
     998:	aa0003e8 	mov	x8, x0
     99c:	b94013e8 	ldr	w8, [sp, #16]
     9a0:	529fffc9 	mov	w9, #0xfffe                	// #65534
     9a4:	72bfffe9 	movk	w9, #0xffff, lsl #16
     9a8:	d2946c0a 	mov	x10, #0xa360                	// #41824
     9ac:	f2a016ca 	movk	x10, #0xb6, lsl #16
     9b0:	f2c00aaa 	movk	x10, #0x55, lsl #32
     9b4:	f87f694a 	ldr	x10, [x10, xzr]
     9b8:	34ffb40a 	cbz	w10, 38 <trap_handler+0x38>
     9bc:	91007108 	add	x8, x8, #0x1c
     9c0:	d294700b 	mov	x11, #0xa380                	// #41856
     9c4:	f2a016cb 	movk	x11, #0xb6, lsl #16
     9c8:	f2c00aab 	movk	x11, #0x55, lsl #32
     9cc:	b87f696b 	ldr	w11, [x11, xzr]
     9d0:	5100116b 	sub	w11, w11, #0x4
     9d4:	6b0b011f 	cmp	w8, w11
     9d8:	54ffb308 	b.hi	38 <trap_handler+0x38>  // b.pmore
     9dc:	b8286949 	str	w9, [x10, x8]
     9e0:	b94013e8 	ldr	w8, [sp, #16]
     9e4:	529fffe9 	mov	w9, #0xffff                	// #65535
     9e8:	72bfffe9 	movk	w9, #0xffff, lsl #16
     9ec:	d2946c0a 	mov	x10, #0xa360                	// #41824
     9f0:	f2a016ca 	movk	x10, #0xb6, lsl #16
     9f4:	f2c00aaa 	movk	x10, #0x55, lsl #32
     9f8:	f87f694a 	ldr	x10, [x10, xzr]
     9fc:	34ffb1ea 	cbz	w10, 38 <trap_handler+0x38>
     a00:	91006108 	add	x8, x8, #0x18
     a04:	d294700b 	mov	x11, #0xa380                	// #41856
     a08:	f2a016cb 	movk	x11, #0xb6, lsl #16
     a0c:	f2c00aab 	movk	x11, #0x55, lsl #32
     a10:	b87f696b 	ldr	w11, [x11, xzr]
     a14:	5100116b 	sub	w11, w11, #0x4
     a18:	6b0b011f 	cmp	w8, w11
     a1c:	54ffb0e8 	b.hi	38 <trap_handler+0x38>  // b.pmore
     a20:	b8286949 	str	w9, [x10, x8]
     a24:	b94013e8 	ldr	w8, [sp, #16]
     a28:	52800849 	mov	w9, #0x42                  	// #66
     a2c:	d2946c0a 	mov	x10, #0xa360                	// #41824
     a30:	f2a016ca 	movk	x10, #0xb6, lsl #16
     a34:	f2c00aaa 	movk	x10, #0x55, lsl #32
     a38:	f87f694a 	ldr	x10, [x10, xzr]
     a3c:	34ffafea 	cbz	w10, 38 <trap_handler+0x38>
     a40:	91005108 	add	x8, x8, #0x14
     a44:	d294700b 	mov	x11, #0xa380                	// #41856
     a48:	f2a016cb 	movk	x11, #0xb6, lsl #16
     a4c:	f2c00aab 	movk	x11, #0x55, lsl #32
     a50:	b87f696b 	ldr	w11, [x11, xzr]
     a54:	5100116b 	sub	w11, w11, #0x4
     a58:	6b0b011f 	cmp	w8, w11
     a5c:	54ffaee8 	b.hi	38 <trap_handler+0x38>  // b.pmore
     a60:	b8286949 	str	w9, [x10, x8]
     a64:	b94013e8 	ldr	w8, [sp, #16]
     a68:	52800829 	mov	w9, #0x41                  	// #65
     a6c:	d2946c0a 	mov	x10, #0xa360                	// #41824
     a70:	f2a016ca 	movk	x10, #0xb6, lsl #16
     a74:	f2c00aaa 	movk	x10, #0x55, lsl #32
     a78:	f87f694a 	ldr	x10, [x10, xzr]
     a7c:	34ffadea 	cbz	w10, 38 <trap_handler+0x38>
     a80:	91004108 	add	x8, x8, #0x10
     a84:	d294700b 	mov	x11, #0xa380                	// #41856
     a88:	f2a016cb 	movk	x11, #0xb6, lsl #16
     a8c:	f2c00aab 	movk	x11, #0x55, lsl #32
     a90:	b87f696b 	ldr	w11, [x11, xzr]
     a94:	5100116b 	sub	w11, w11, #0x4
     a98:	6b0b011f 	cmp	w8, w11
     a9c:	54fface8 	b.hi	38 <trap_handler+0x38>  // b.pmore
     aa0:	b8286949 	str	w9, [x10, x8]
     aa4:	52808b08 	mov	w8, #0x458                 	// #1112
     aa8:	b94013e9 	ldr	w9, [sp, #16]
     aac:	5280020a 	mov	w10, #0x10                  	// #16
     ab0:	0b0a0129 	add	w9, w9, w10
     ab4:	2a0903e1 	mov	w1, w9
     ab8:	2a0803e0 	mov	w0, w8
     abc:	d10103ff 	sub	sp, sp, #0x40
     ac0:	a90327e8 	stp	x8, x9, [sp, #48]
     ac4:	a9022fea 	stp	x10, x11, [sp, #32]
     ac8:	a90137ec 	stp	x12, x13, [sp, #16]
     acc:	a9003fee 	stp	x14, x15, [sp]
     ad0:	d287bb88 	mov	x8, #0x3ddc                	// #15836
     ad4:	f2a00b28 	movk	x8, #0x59, lsl #16
     ad8:	f2c00aa8 	movk	x8, #0x55, lsl #32
     adc:	f2e00008 	movk	x8, #0x0, lsl #48
     ae0:	d63f0100 	blr	x8
     ae4:	a94327e8 	ldp	x8, x9, [sp, #48]
     ae8:	a9422fea 	ldp	x10, x11, [sp, #32]
     aec:	a94137ec 	ldp	x12, x13, [sp, #16]
     af0:	a9403fee 	ldp	x14, x15, [sp]
     af4:	910103ff 	add	sp, sp, #0x40
     af8:	aa0003e8 	mov	x8, x0
     afc:	b94013e8 	ldr	w8, [sp, #16]
     b00:	529fffc9 	mov	w9, #0xfffe                	// #65534
     b04:	72bfffe9 	movk	w9, #0xffff, lsl #16
     b08:	d2946c0a 	mov	x10, #0xa360                	// #41824
     b0c:	f2a016ca 	movk	x10, #0xb6, lsl #16
     b10:	f2c00aaa 	movk	x10, #0x55, lsl #32
     b14:	f87f694a 	ldr	x10, [x10, xzr]
     b18:	34ffa90a 	cbz	w10, 38 <trap_handler+0x38>
     b1c:	9100a108 	add	x8, x8, #0x28
     b20:	d294700b 	mov	x11, #0xa380                	// #41856
     b24:	f2a016cb 	movk	x11, #0xb6, lsl #16
     b28:	f2c00aab 	movk	x11, #0x55, lsl #32
     b2c:	b87f696b 	ldr	w11, [x11, xzr]
     b30:	5100116b 	sub	w11, w11, #0x4
     b34:	6b0b011f 	cmp	w8, w11
     b38:	54ffa808 	b.hi	38 <trap_handler+0x38>  // b.pmore
     b3c:	b8286949 	str	w9, [x10, x8]
     b40:	b94013e8 	ldr	w8, [sp, #16]
     b44:	529fffe9 	mov	w9, #0xffff                	// #65535
     b48:	72bfffe9 	movk	w9, #0xffff, lsl #16
     b4c:	d2946c0a 	mov	x10, #0xa360                	// #41824
     b50:	f2a016ca 	movk	x10, #0xb6, lsl #16
     b54:	f2c00aaa 	movk	x10, #0x55, lsl #32
     b58:	f87f694a 	ldr	x10, [x10, xzr]
     b5c:	34ffa6ea 	cbz	w10, 38 <trap_handler+0x38>
     b60:	91009108 	add	x8, x8, #0x24
     b64:	d294700b 	mov	x11, #0xa380                	// #41856
     b68:	f2a016cb 	movk	x11, #0xb6, lsl #16
     b6c:	f2c00aab 	movk	x11, #0x55, lsl #32
     b70:	b87f696b 	ldr	w11, [x11, xzr]
     b74:	5100116b 	sub	w11, w11, #0x4
     b78:	6b0b011f 	cmp	w8, w11
     b7c:	54ffa5e8 	b.hi	38 <trap_handler+0x38>  // b.pmore
     b80:	b8286949 	str	w9, [x10, x8]
     b84:	b94013e8 	ldr	w8, [sp, #16]
     b88:	52808009 	mov	w9, #0x400                 	// #1024
     b8c:	d2946c0a 	mov	x10, #0xa360                	// #41824
     b90:	f2a016ca 	movk	x10, #0xb6, lsl #16
     b94:	f2c00aaa 	movk	x10, #0x55, lsl #32
     b98:	f87f694a 	ldr	x10, [x10, xzr]
     b9c:	34ffa4ea 	cbz	w10, 38 <trap_handler+0x38>
     ba0:	91008108 	add	x8, x8, #0x20
     ba4:	d294700b 	mov	x11, #0xa380                	// #41856
     ba8:	f2a016cb 	movk	x11, #0xb6, lsl #16
     bac:	f2c00aab 	movk	x11, #0x55, lsl #32
     bb0:	b87f696b 	ldr	w11, [x11, xzr]
     bb4:	5100116b 	sub	w11, w11, #0x4
     bb8:	6b0b011f 	cmp	w8, w11
     bbc:	54ffa3e8 	b.hi	38 <trap_handler+0x38>  // b.pmore
     bc0:	b8286949 	str	w9, [x10, x8]
     bc4:	528088a8 	mov	w8, #0x445                 	// #1093
     bc8:	b94013e9 	ldr	w9, [sp, #16]
     bcc:	5280040a 	mov	w10, #0x20                  	// #32
     bd0:	0b0a0129 	add	w9, w9, w10
     bd4:	2a0903e1 	mov	w1, w9
     bd8:	2a0803e0 	mov	w0, w8
     bdc:	d10103ff 	sub	sp, sp, #0x40
     be0:	a90327e8 	stp	x8, x9, [sp, #48]
     be4:	a9022fea 	stp	x10, x11, [sp, #32]
     be8:	a90137ec 	stp	x12, x13, [sp, #16]
     bec:	a9003fee 	stp	x14, x15, [sp]
     bf0:	d287bb88 	mov	x8, #0x3ddc                	// #15836
     bf4:	f2a00b28 	movk	x8, #0x59, lsl #16
     bf8:	f2c00aa8 	movk	x8, #0x55, lsl #32
     bfc:	f2e00008 	movk	x8, #0x0, lsl #48
     c00:	d63f0100 	blr	x8
     c04:	a94327e8 	ldp	x8, x9, [sp, #48]
     c08:	a9422fea 	ldp	x10, x11, [sp, #32]
     c0c:	a94137ec 	ldp	x12, x13, [sp, #16]
     c10:	a9403fee 	ldp	x14, x15, [sp]
     c14:	910103ff 	add	sp, sp, #0x40
     c18:	aa0003e8 	mov	x8, x0
     c1c:	b94013e8 	ldr	w8, [sp, #16]
     c20:	52800809 	mov	w9, #0x40                  	// #64
     c24:	0b090108 	add	w8, w8, w9
     c28:	d2824689 	mov	x9, #0x1234                	// #4660
     c2c:	d2946c0a 	mov	x10, #0xa360                	// #41824
     c30:	f2a016ca 	movk	x10, #0xb6, lsl #16
     c34:	f2c00aaa 	movk	x10, #0x55, lsl #32
     c38:	f87f694a 	ldr	x10, [x10, xzr]
     c3c:	b4ff9fea 	cbz	x10, 38 <trap_handler+0x38>
     c40:	d294700b 	mov	x11, #0xa380                	// #41856
     c44:	f2a016cb 	movk	x11, #0xb6, lsl #16
     c48:	f2c00aab 	movk	x11, #0x55, lsl #32
     c4c:	b87f696b 	ldr	w11, [x11, xzr]
     c50:	5100216b 	sub	w11, w11, #0x8
     c54:	6b0b011f 	cmp	w8, w11
     c58:	54ff9f08 	b.hi	38 <trap_handler+0x38>  // b.pmore
     c5c:	f8286949 	str	x9, [x10, x8]
     c60:	b94013e8 	ldr	w8, [sp, #16]
     c64:	d297dde9 	mov	x9, #0xbeef                	// #48879
     c68:	d2946c0a 	mov	x10, #0xa360                	// #41824
     c6c:	f2a016ca 	movk	x10, #0xb6, lsl #16
     c70:	f2c00aaa 	movk	x10, #0x55, lsl #32
     c74:	f87f694a 	ldr	x10, [x10, xzr]
     c78:	b4ff9e0a 	cbz	x10, 38 <trap_handler+0x38>
     c7c:	9100e108 	add	x8, x8, #0x38
     c80:	d294700b 	mov	x11, #0xa380                	// #41856
     c84:	f2a016cb 	movk	x11, #0xb6, lsl #16
     c88:	f2c00aab 	movk	x11, #0x55, lsl #32
     c8c:	b87f696b 	ldr	w11, [x11, xzr]
     c90:	5100216b 	sub	w11, w11, #0x8
     c94:	6b0b011f 	cmp	w8, w11
     c98:	54ff9d08 	b.hi	38 <trap_handler+0x38>  // b.pmore
     c9c:	f8286949 	str	x9, [x10, x8]
     ca0:	b94013e8 	ldr	w8, [sp, #16]
     ca4:	d29bd5a9 	mov	x9, #0xdead                	// #57005
     ca8:	d2946c0a 	mov	x10, #0xa360                	// #41824
     cac:	f2a016ca 	movk	x10, #0xb6, lsl #16
     cb0:	f2c00aaa 	movk	x10, #0x55, lsl #32
     cb4:	f87f694a 	ldr	x10, [x10, xzr]
     cb8:	b4ff9c0a 	cbz	x10, 38 <trap_handler+0x38>
     cbc:	9100c108 	add	x8, x8, #0x30
     cc0:	d294700b 	mov	x11, #0xa380                	// #41856
     cc4:	f2a016cb 	movk	x11, #0xb6, lsl #16
     cc8:	f2c00aab 	movk	x11, #0x55, lsl #32
     ccc:	b87f696b 	ldr	w11, [x11, xzr]
     cd0:	5100216b 	sub	w11, w11, #0x8
     cd4:	6b0b011f 	cmp	w8, w11
     cd8:	54ff9b08 	b.hi	38 <trap_handler+0x38>  // b.pmore
     cdc:	f8286949 	str	x9, [x10, x8]
     ce0:	52808088 	mov	w8, #0x404                 	// #1028
     ce4:	b94013e9 	ldr	w9, [sp, #16]
     ce8:	5280060a 	mov	w10, #0x30                  	// #48
     cec:	0b0a0129 	add	w9, w9, w10
     cf0:	2a0903e1 	mov	w1, w9
     cf4:	2a0803e0 	mov	w0, w8
     cf8:	d10103ff 	sub	sp, sp, #0x40
     cfc:	a90327e8 	stp	x8, x9, [sp, #48]
     d00:	a9022fea 	stp	x10, x11, [sp, #32]
     d04:	a90137ec 	stp	x12, x13, [sp, #16]
     d08:	a9003fee 	stp	x14, x15, [sp]
     d0c:	d287bb88 	mov	x8, #0x3ddc                	// #15836
     d10:	f2a00b28 	movk	x8, #0x59, lsl #16
     d14:	f2c00aa8 	movk	x8, #0x55, lsl #32
     d18:	f2e00008 	movk	x8, #0x0, lsl #48
     d1c:	d63f0100 	blr	x8
     d20:	a94327e8 	ldp	x8, x9, [sp, #48]
     d24:	a9422fea 	ldp	x10, x11, [sp, #32]
     d28:	a94137ec 	ldp	x12, x13, [sp, #16]
     d2c:	a9403fee 	ldp	x14, x15, [sp]
     d30:	910103ff 	add	sp, sp, #0x40
     d34:	aa0003e8 	mov	x8, x0
     d38:	b94013e8 	ldr	w8, [sp, #16]
     d3c:	52800d89 	mov	w9, #0x6c                  	// #108
     d40:	0b090108 	add	w8, w8, w9
     d44:	529fff89 	mov	w9, #0xfffc                	// #65532
     d48:	72bfffe9 	movk	w9, #0xffff, lsl #16
     d4c:	d2946c0a 	mov	x10, #0xa360                	// #41824
     d50:	f2a016ca 	movk	x10, #0xb6, lsl #16
     d54:	f2c00aaa 	movk	x10, #0x55, lsl #32
     d58:	f87f694a 	ldr	x10, [x10, xzr]
     d5c:	34ff96ea 	cbz	w10, 38 <trap_handler+0x38>
     d60:	d294700b 	mov	x11, #0xa380                	// #41856
     d64:	f2a016cb 	movk	x11, #0xb6, lsl #16
     d68:	f2c00aab 	movk	x11, #0x55, lsl #32
     d6c:	b87f696b 	ldr	w11, [x11, xzr]
     d70:	5100116b 	sub	w11, w11, #0x4
     d74:	6b0b011f 	cmp	w8, w11
     d78:	54ff9608 	b.hi	38 <trap_handler+0x38>  // b.pmore
     d7c:	b8286949 	str	w9, [x10, x8]
     d80:	b94013e8 	ldr	w8, [sp, #16]
     d84:	52800d09 	mov	w9, #0x68                  	// #104
     d88:	0b090108 	add	w8, w8, w9
     d8c:	529fffa9 	mov	w9, #0xfffd                	// #65533
     d90:	72bfffe9 	movk	w9, #0xffff, lsl #16
     d94:	d2946c0a 	mov	x10, #0xa360                	// #41824
     d98:	f2a016ca 	movk	x10, #0xb6, lsl #16
     d9c:	f2c00aaa 	movk	x10, #0x55, lsl #32
     da0:	f87f694a 	ldr	x10, [x10, xzr]
     da4:	34ff94aa 	cbz	w10, 38 <trap_handler+0x38>
     da8:	d294700b 	mov	x11, #0xa380                	// #41856
     dac:	f2a016cb 	movk	x11, #0xb6, lsl #16
     db0:	f2c00aab 	movk	x11, #0x55, lsl #32
     db4:	b87f696b 	ldr	w11, [x11, xzr]
     db8:	5100116b 	sub	w11, w11, #0x4
     dbc:	6b0b011f 	cmp	w8, w11
     dc0:	54ff93c8 	b.hi	38 <trap_handler+0x38>  // b.pmore
     dc4:	b8286949 	str	w9, [x10, x8]
     dc8:	b94013e8 	ldr	w8, [sp, #16]
     dcc:	52800c09 	mov	w9, #0x60                  	// #96
     dd0:	0b090108 	add	w8, w8, w9
     dd4:	d297dde9 	mov	x9, #0xbeef                	// #48879
     dd8:	d2946c0a 	mov	x10, #0xa360                	// #41824
     ddc:	f2a016ca 	movk	x10, #0xb6, lsl #16
     de0:	f2c00aaa 	movk	x10, #0x55, lsl #32
     de4:	f87f694a 	ldr	x10, [x10, xzr]
     de8:	b4ff928a 	cbz	x10, 38 <trap_handler+0x38>
     dec:	d294700b 	mov	x11, #0xa380                	// #41856
     df0:	f2a016cb 	movk	x11, #0xb6, lsl #16
     df4:	f2c00aab 	movk	x11, #0x55, lsl #32
     df8:	b87f696b 	ldr	w11, [x11, xzr]
     dfc:	5100216b 	sub	w11, w11, #0x8
     e00:	6b0b011f 	cmp	w8, w11
     e04:	54ff91a8 	b.hi	38 <trap_handler+0x38>  // b.pmore
     e08:	f8286949 	str	x9, [x10, x8]
     e0c:	b94013e8 	ldr	w8, [sp, #16]
     e10:	d29fffe9 	mov	x9, #0xffff                	// #65535
     e14:	f2bfffe9 	movk	x9, #0xffff, lsl #16
     e18:	f2dfffe9 	movk	x9, #0xffff, lsl #32
     e1c:	f2efffe9 	movk	x9, #0x7fff, lsl #48
     e20:	d2946c0a 	mov	x10, #0xa360                	// #41824
     e24:	f2a016ca 	movk	x10, #0xb6, lsl #16
     e28:	f2c00aaa 	movk	x10, #0x55, lsl #32
     e2c:	f87f694a 	ldr	x10, [x10, xzr]
     e30:	b4ff904a 	cbz	x10, 38 <trap_handler+0x38>
     e34:	91016108 	add	x8, x8, #0x58
     e38:	d294700b 	mov	x11, #0xa380                	// #41856
     e3c:	f2a016cb 	movk	x11, #0xb6, lsl #16
     e40:	f2c00aab 	movk	x11, #0x55, lsl #32
     e44:	b87f696b 	ldr	w11, [x11, xzr]
     e48:	5100216b 	sub	w11, w11, #0x8
     e4c:	6b0b011f 	cmp	w8, w11
     e50:	54ff8f48 	b.hi	38 <trap_handler+0x38>  // b.pmore
     e54:	f8286949 	str	x9, [x10, x8]
     e58:	b94013e8 	ldr	w8, [sp, #16]
     e5c:	52800049 	mov	w9, #0x2                   	// #2
     e60:	d2946c0a 	mov	x10, #0xa360                	// #41824
     e64:	f2a016ca 	movk	x10, #0xb6, lsl #16
     e68:	f2c00aaa 	movk	x10, #0x55, lsl #32
     e6c:	f87f694a 	ldr	x10, [x10, xzr]
     e70:	34ff8e4a 	cbz	w10, 38 <trap_handler+0x38>
     e74:	91015108 	add	x8, x8, #0x54
     e78:	d294700b 	mov	x11, #0xa380                	// #41856
     e7c:	f2a016cb 	movk	x11, #0xb6, lsl #16
     e80:	f2c00aab 	movk	x11, #0x55, lsl #32
     e84:	b87f696b 	ldr	w11, [x11, xzr]
     e88:	5100116b 	sub	w11, w11, #0x4
     e8c:	6b0b011f 	cmp	w8, w11
     e90:	54ff8d48 	b.hi	38 <trap_handler+0x38>  // b.pmore
     e94:	b8286949 	str	w9, [x10, x8]
     e98:	b94013e8 	ldr	w8, [sp, #16]
     e9c:	52800029 	mov	w9, #0x1                   	// #1
     ea0:	d2946c0a 	mov	x10, #0xa360                	// #41824
     ea4:	f2a016ca 	movk	x10, #0xb6, lsl #16
     ea8:	f2c00aaa 	movk	x10, #0x55, lsl #32
     eac:	f87f694a 	ldr	x10, [x10, xzr]
     eb0:	34ff8c4a 	cbz	w10, 38 <trap_handler+0x38>
     eb4:	91014108 	add	x8, x8, #0x50
     eb8:	d294700b 	mov	x11, #0xa380                	// #41856
     ebc:	f2a016cb 	movk	x11, #0xb6, lsl #16
     ec0:	f2c00aab 	movk	x11, #0x55, lsl #32
     ec4:	b87f696b 	ldr	w11, [x11, xzr]
     ec8:	5100116b 	sub	w11, w11, #0x4
     ecc:	6b0b011f 	cmp	w8, w11
     ed0:	54ff8b48 	b.hi	38 <trap_handler+0x38>  // b.pmore
     ed4:	b8286949 	str	w9, [x10, x8]
     ed8:	528084c8 	mov	w8, #0x426                 	// #1062
     edc:	b94013e9 	ldr	w9, [sp, #16]
     ee0:	52800a0a 	mov	w10, #0x50                  	// #80
     ee4:	0b0a0129 	add	w9, w9, w10
     ee8:	2a0903e1 	mov	w1, w9
     eec:	2a0803e0 	mov	w0, w8
     ef0:	d10103ff 	sub	sp, sp, #0x40
     ef4:	a90327e8 	stp	x8, x9, [sp, #48]
     ef8:	a9022fea 	stp	x10, x11, [sp, #32]
     efc:	a90137ec 	stp	x12, x13, [sp, #16]
     f00:	a9003fee 	stp	x14, x15, [sp]
     f04:	d287bb88 	mov	x8, #0x3ddc                	// #15836
     f08:	f2a00b28 	movk	x8, #0x59, lsl #16
     f0c:	f2c00aa8 	movk	x8, #0x55, lsl #32
     f10:	f2e00008 	movk	x8, #0x0, lsl #48
     f14:	d63f0100 	blr	x8
     f18:	a94327e8 	ldp	x8, x9, [sp, #48]
     f1c:	a9422fea 	ldp	x10, x11, [sp, #32]
     f20:	a94137ec 	ldp	x12, x13, [sp, #16]
     f24:	a9403fee 	ldp	x14, x15, [sp]
     f28:	910103ff 	add	sp, sp, #0x40
     f2c:	aa0003e8 	mov	x8, x0
     f30:	b9000fe8 	str	w8, [sp, #12]
     f34:	b94013e8 	ldr	w8, [sp, #16]
     f38:	52800e09 	mov	w9, #0x70                  	// #112
     f3c:	0b090108 	add	w8, w8, w9
     f40:	d2946209 	mov	x9, #0xa310                	// #41744
     f44:	f2a016c9 	movk	x9, #0xb6, lsl #16
     f48:	f2c00aa9 	movk	x9, #0x55, lsl #32
     f4c:	f87f6929 	ldr	x9, [x9, xzr]
     f50:	91000129 	add	x9, x9, #0x0
     f54:	f83f6928 	str	x8, [x9, xzr]
     f58:	b9400fe8 	ldr	w8, [sp, #12]
     f5c:	b400003f 	cbz	xzr, f60 <func_5+0x7e0>
     f60:	2a0803e0 	mov	w0, w8
     f64:	910043ff 	add	sp, sp, #0x10
     f68:	a8c153f3 	ldp	x19, x20, [sp], #16
     f6c:	a8c17bfd 	ldp	x29, x30, [sp], #16
     f70:	d65f03c0 	ret

0000000000000f74 <func_6>:
     f74:	a9bf7bfd 	stp	x29, x30, [sp, #-16]!
     f78:	910003fd 	mov	x29, sp
     f7c:	a9bf53f3 	stp	x19, x20, [sp, #-16]!
     f80:	d2946413 	mov	x19, #0xa320                	// #41760
     f84:	f2a016d3 	movk	x19, #0xb6, lsl #16
     f88:	f2c00ab3 	movk	x19, #0x55, lsl #32
     f8c:	f87f6a73 	ldr	x19, [x19, xzr]
     f90:	cb3363f3 	sub	x19, sp, x19
     f94:	d2800014 	mov	x20, #0x0                   	// #0
     f98:	f2a00814 	movk	x20, #0x40, lsl #16
     f9c:	eb14027f 	cmp	x19, x20
     fa0:	54ff850b 	b.lt	40 <trap_handler+0x40>  // b.tstop
     fa4:	52800008 	mov	w8, #0x0                   	// #0
     fa8:	2a0803e0 	mov	w0, w8
     fac:	d10103ff 	sub	sp, sp, #0x40
     fb0:	a90327e8 	stp	x8, x9, [sp, #48]
     fb4:	a9022fea 	stp	x10, x11, [sp, #32]
     fb8:	a90137ec 	stp	x12, x13, [sp, #16]
     fbc:	a9003fee 	stp	x14, x15, [sp]
     fc0:	97fffc27 	bl	5c <func_2>
     fc4:	a94327e8 	ldp	x8, x9, [sp, #48]
     fc8:	a9422fea 	ldp	x10, x11, [sp, #32]
     fcc:	a94137ec 	ldp	x12, x13, [sp, #16]
     fd0:	a9403fee 	ldp	x14, x15, [sp]
     fd4:	910103ff 	add	sp, sp, #0x40
     fd8:	aa0003e8 	mov	x8, x0
     fdc:	d10103ff 	sub	sp, sp, #0x40
     fe0:	a90327e8 	stp	x8, x9, [sp, #48]
     fe4:	a9022fea 	stp	x10, x11, [sp, #32]
     fe8:	a90137ec 	stp	x12, x13, [sp, #16]
     fec:	a9003fee 	stp	x14, x15, [sp]
     ff0:	97fffc7c 	bl	1e0 <func_3>
     ff4:	a94327e8 	ldp	x8, x9, [sp, #48]
     ff8:	a9422fea 	ldp	x10, x11, [sp, #32]
     ffc:	a94137ec 	ldp	x12, x13, [sp, #16]
    1000:	a9403fee 	ldp	x14, x15, [sp]
    1004:	910103ff 	add	sp, sp, #0x40
    1008:	aa0003e8 	mov	x8, x0
    100c:	d10103ff 	sub	sp, sp, #0x40
    1010:	a90327e8 	stp	x8, x9, [sp, #48]
    1014:	a9022fea 	stp	x10, x11, [sp, #32]
    1018:	a90137ec 	stp	x12, x13, [sp, #16]
    101c:	a9003fee 	stp	x14, x15, [sp]
    1020:	97fffce6 	bl	3b8 <func_4>
    1024:	a94327e8 	ldp	x8, x9, [sp, #48]
    1028:	a9422fea 	ldp	x10, x11, [sp, #32]
    102c:	a94137ec 	ldp	x12, x13, [sp, #16]
    1030:	a9403fee 	ldp	x14, x15, [sp]
    1034:	910103ff 	add	sp, sp, #0x40
    1038:	aa0003e8 	mov	x8, x0
    103c:	d10103ff 	sub	sp, sp, #0x40
    1040:	a90327e8 	stp	x8, x9, [sp, #48]
    1044:	a9022fea 	stp	x10, x11, [sp, #32]
    1048:	a90137ec 	stp	x12, x13, [sp, #16]
    104c:	a9003fee 	stp	x14, x15, [sp]
    1050:	97fffdcc 	bl	780 <func_5>
    1054:	a94327e8 	ldp	x8, x9, [sp, #48]
    1058:	a9422fea 	ldp	x10, x11, [sp, #32]
    105c:	a94137ec 	ldp	x12, x13, [sp, #16]
    1060:	a9403fee 	ldp	x14, x15, [sp]
    1064:	910103ff 	add	sp, sp, #0x40
    1068:	aa0003e8 	mov	x8, x0
    106c:	b400003f 	cbz	xzr, 1070 <func_6+0xfc>
    1070:	2a0803e0 	mov	w0, w8
    1074:	a8c153f3 	ldp	x19, x20, [sp], #16
    1078:	a8c17bfd 	ldp	x29, x30, [sp], #16
    107c:	d65f03c0 	ret

0000000000001080 <func_7>:
    1080:	a9bf7bfd 	stp	x29, x30, [sp, #-16]!
    1084:	910003fd 	mov	x29, sp
    1088:	a9bf53f3 	stp	x19, x20, [sp, #-16]!
    108c:	d2946413 	mov	x19, #0xa320                	// #41760
    1090:	f2a016d3 	movk	x19, #0xb6, lsl #16
    1094:	f2c00ab3 	movk	x19, #0x55, lsl #32
    1098:	f87f6a73 	ldr	x19, [x19, xzr]
    109c:	cb3363f3 	sub	x19, sp, x19
    10a0:	d2800014 	mov	x20, #0x0                   	// #0
    10a4:	f2a00814 	movk	x20, #0x40, lsl #16
    10a8:	eb14027f 	cmp	x19, x20
    10ac:	54ff7cab 	b.lt	40 <trap_handler+0x40>  // b.tstop
    10b0:	a8c153f3 	ldp	x19, x20, [sp], #16
    10b4:	a8c17bfd 	ldp	x29, x30, [sp], #16
    10b8:	d65f03c0 	ret

00000000000010bc <func_8>:
    10bc:	a9bf7bfd 	stp	x29, x30, [sp, #-16]!
    10c0:	910003fd 	mov	x29, sp
    10c4:	a9bf53f3 	stp	x19, x20, [sp, #-16]!
    10c8:	d2946413 	mov	x19, #0xa320                	// #41760
    10cc:	f2a016d3 	movk	x19, #0xb6, lsl #16
    10d0:	f2c00ab3 	movk	x19, #0x55, lsl #32
    10d4:	f87f6a73 	ldr	x19, [x19, xzr]
    10d8:	cb3363f3 	sub	x19, sp, x19
    10dc:	d2800014 	mov	x20, #0x0                   	// #0
    10e0:	f2a00814 	movk	x20, #0x40, lsl #16
    10e4:	eb14027f 	cmp	x19, x20
    10e8:	54ff7acb 	b.lt	40 <trap_handler+0x40>  // b.tstop
    10ec:	d10103ff 	sub	sp, sp, #0x40
    10f0:	a90327e8 	stp	x8, x9, [sp, #48]
    10f4:	a9022fea 	stp	x10, x11, [sp, #32]
    10f8:	a90137ec 	stp	x12, x13, [sp, #16]
    10fc:	a9003fee 	stp	x14, x15, [sp]
    1100:	97ffffe0 	bl	1080 <func_7>
    1104:	a94327e8 	ldp	x8, x9, [sp, #48]
    1108:	a9422fea 	ldp	x10, x11, [sp, #32]
    110c:	a94137ec 	ldp	x12, x13, [sp, #16]
    1110:	a9403fee 	ldp	x14, x15, [sp]
    1114:	910103ff 	add	sp, sp, #0x40
    1118:	aa0003e8 	mov	x8, x0
    111c:	d10103ff 	sub	sp, sp, #0x40
    1120:	a90327e8 	stp	x8, x9, [sp, #48]
    1124:	a9022fea 	stp	x10, x11, [sp, #32]
    1128:	a90137ec 	stp	x12, x13, [sp, #16]
    112c:	a9003fee 	stp	x14, x15, [sp]
    1130:	97ffffd4 	bl	1080 <func_7>
    1134:	a94327e8 	ldp	x8, x9, [sp, #48]
    1138:	a9422fea 	ldp	x10, x11, [sp, #32]
    113c:	a94137ec 	ldp	x12, x13, [sp, #16]
    1140:	a9403fee 	ldp	x14, x15, [sp]
    1144:	910103ff 	add	sp, sp, #0x40
    1148:	aa0003e9 	mov	x9, x0
    114c:	a8c153f3 	ldp	x19, x20, [sp], #16
    1150:	a8c17bfd 	ldp	x29, x30, [sp], #16
    1154:	d65f03c0 	ret

0000000000001158 <increment>:
    1158:	a9bf7bfd 	stp	x29, x30, [sp, #-16]!
    115c:	910003fd 	mov	x29, sp
    1160:	a9bf53f3 	stp	x19, x20, [sp, #-16]!
    1164:	d2946413 	mov	x19, #0xa320                	// #41760
    1168:	f2a016d3 	movk	x19, #0xb6, lsl #16
    116c:	f2c00ab3 	movk	x19, #0x55, lsl #32
    1170:	f87f6a73 	ldr	x19, [x19, xzr]
    1174:	cb3363f3 	sub	x19, sp, x19
    1178:	d2800014 	mov	x20, #0x0                   	// #0
    117c:	f2a00814 	movk	x20, #0x40, lsl #16
    1180:	eb14027f 	cmp	x19, x20
    1184:	54ff75eb 	b.lt	40 <trap_handler+0x40>  // b.tstop
    1188:	d10043ff 	sub	sp, sp, #0x10
    118c:	b90013e0 	str	w0, [sp, #16]
    1190:	b94013e8 	ldr	w8, [sp, #16]
    1194:	2a0803e0 	mov	w0, w8
    1198:	d10103ff 	sub	sp, sp, #0x40
    119c:	a90327e8 	stp	x8, x9, [sp, #48]
    11a0:	a9022fea 	stp	x10, x11, [sp, #32]
    11a4:	a90137ec 	stp	x12, x13, [sp, #16]
    11a8:	a9003fee 	stp	x14, x15, [sp]
    11ac:	97fffbac 	bl	5c <func_2>
    11b0:	a94327e8 	ldp	x8, x9, [sp, #48]
    11b4:	a9422fea 	ldp	x10, x11, [sp, #32]
    11b8:	a94137ec 	ldp	x12, x13, [sp, #16]
    11bc:	a9403fee 	ldp	x14, x15, [sp]
    11c0:	910103ff 	add	sp, sp, #0x40
    11c4:	aa0003e8 	mov	x8, x0
    11c8:	d10103ff 	sub	sp, sp, #0x40
    11cc:	a90327e8 	stp	x8, x9, [sp, #48]
    11d0:	a9022fea 	stp	x10, x11, [sp, #32]
    11d4:	a90137ec 	stp	x12, x13, [sp, #16]
    11d8:	a9003fee 	stp	x14, x15, [sp]
    11dc:	97ffffb8 	bl	10bc <func_8>
    11e0:	a94327e8 	ldp	x8, x9, [sp, #48]
    11e4:	a9422fea 	ldp	x10, x11, [sp, #32]
    11e8:	a94137ec 	ldp	x12, x13, [sp, #16]
    11ec:	a9403fee 	ldp	x14, x15, [sp]
    11f0:	910103ff 	add	sp, sp, #0x40
    11f4:	aa0003e9 	mov	x9, x0
    11f8:	2a0903e0 	mov	w0, w9
    11fc:	910043ff 	add	sp, sp, #0x10
    1200:	a8c153f3 	ldp	x19, x20, [sp], #16
    1204:	a8c17bfd 	ldp	x29, x30, [sp], #16
    1208:	d65f03c0 	ret

000000000000120c <simplePrint>:
    120c:	a9bf7bfd 	stp	x29, x30, [sp, #-16]!
    1210:	910003fd 	mov	x29, sp
    1214:	a9bf53f3 	stp	x19, x20, [sp, #-16]!
    1218:	d2946413 	mov	x19, #0xa320                	// #41760
    121c:	f2a016d3 	movk	x19, #0xb6, lsl #16
    1220:	f2c00ab3 	movk	x19, #0x55, lsl #32
    1224:	f87f6a73 	ldr	x19, [x19, xzr]
    1228:	cb3363f3 	sub	x19, sp, x19
    122c:	d2800014 	mov	x20, #0x0                   	// #0
    1230:	f2a00814 	movk	x20, #0x40, lsl #16
    1234:	eb14027f 	cmp	x19, x20
    1238:	54ff704b 	b.lt	40 <trap_handler+0x40>  // b.tstop
    123c:	d10103ff 	sub	sp, sp, #0x40
    1240:	a90327e8 	stp	x8, x9, [sp, #48]
    1244:	a9022fea 	stp	x10, x11, [sp, #32]
    1248:	a90137ec 	stp	x12, x13, [sp, #16]
    124c:	a9003fee 	stp	x14, x15, [sp]
    1250:	97fffbe4 	bl	1e0 <func_3>
    1254:	a94327e8 	ldp	x8, x9, [sp, #48]
    1258:	a9422fea 	ldp	x10, x11, [sp, #32]
    125c:	a94137ec 	ldp	x12, x13, [sp, #16]
    1260:	a9403fee 	ldp	x14, x15, [sp]
    1264:	910103ff 	add	sp, sp, #0x40
    1268:	aa0003e8 	mov	x8, x0
    126c:	d10103ff 	sub	sp, sp, #0x40
    1270:	a90327e8 	stp	x8, x9, [sp, #48]
    1274:	a9022fea 	stp	x10, x11, [sp, #32]
    1278:	a90137ec 	stp	x12, x13, [sp, #16]
    127c:	a9003fee 	stp	x14, x15, [sp]
    1280:	97ffff8f 	bl	10bc <func_8>
    1284:	a94327e8 	ldp	x8, x9, [sp, #48]
    1288:	a9422fea 	ldp	x10, x11, [sp, #32]
    128c:	a94137ec 	ldp	x12, x13, [sp, #16]
    1290:	a9403fee 	ldp	x14, x15, [sp]
    1294:	910103ff 	add	sp, sp, #0x40
    1298:	aa0003e9 	mov	x9, x0
    129c:	2a0903e0 	mov	w0, w9
    12a0:	a8c153f3 	ldp	x19, x20, [sp], #16
    12a4:	a8c17bfd 	ldp	x29, x30, [sp], #16
    12a8:	d65f03c0 	ret

00000000000012ac <mixedPrint>:
    12ac:	a9bf7bfd 	stp	x29, x30, [sp, #-16]!
    12b0:	910003fd 	mov	x29, sp
    12b4:	a9bf53f3 	stp	x19, x20, [sp, #-16]!
    12b8:	d2946413 	mov	x19, #0xa320                	// #41760
    12bc:	f2a016d3 	movk	x19, #0xb6, lsl #16
    12c0:	f2c00ab3 	movk	x19, #0x55, lsl #32
    12c4:	f87f6a73 	ldr	x19, [x19, xzr]
    12c8:	cb3363f3 	sub	x19, sp, x19
    12cc:	d2800014 	mov	x20, #0x0                   	// #0
    12d0:	f2a00814 	movk	x20, #0x40, lsl #16
    12d4:	eb14027f 	cmp	x19, x20
    12d8:	54ff6b4b 	b.lt	40 <trap_handler+0x40>  // b.tstop
    12dc:	d10103ff 	sub	sp, sp, #0x40
    12e0:	a90327e8 	stp	x8, x9, [sp, #48]
    12e4:	a9022fea 	stp	x10, x11, [sp, #32]
    12e8:	a90137ec 	stp	x12, x13, [sp, #16]
    12ec:	a9003fee 	stp	x14, x15, [sp]
    12f0:	97fffc32 	bl	3b8 <func_4>
    12f4:	a94327e8 	ldp	x8, x9, [sp, #48]
    12f8:	a9422fea 	ldp	x10, x11, [sp, #32]
    12fc:	a94137ec 	ldp	x12, x13, [sp, #16]
    1300:	a9403fee 	ldp	x14, x15, [sp]
    1304:	910103ff 	add	sp, sp, #0x40
    1308:	aa0003e8 	mov	x8, x0
    130c:	d10103ff 	sub	sp, sp, #0x40
    1310:	a90327e8 	stp	x8, x9, [sp, #48]
    1314:	a9022fea 	stp	x10, x11, [sp, #32]
    1318:	a90137ec 	stp	x12, x13, [sp, #16]
    131c:	a9003fee 	stp	x14, x15, [sp]
    1320:	97ffff67 	bl	10bc <func_8>
    1324:	a94327e8 	ldp	x8, x9, [sp, #48]
    1328:	a9422fea 	ldp	x10, x11, [sp, #32]
    132c:	a94137ec 	ldp	x12, x13, [sp, #16]
    1330:	a9403fee 	ldp	x14, x15, [sp]
    1334:	910103ff 	add	sp, sp, #0x40
    1338:	aa0003e9 	mov	x9, x0
    133c:	2a0903e0 	mov	w0, w9
    1340:	a8c153f3 	ldp	x19, x20, [sp], #16
    1344:	a8c17bfd 	ldp	x29, x30, [sp], #16
    1348:	d65f03c0 	ret

000000000000134c <complexPrint>:
    134c:	a9bf7bfd 	stp	x29, x30, [sp, #-16]!
    1350:	910003fd 	mov	x29, sp
    1354:	a9bf53f3 	stp	x19, x20, [sp, #-16]!
    1358:	d2946413 	mov	x19, #0xa320                	// #41760
    135c:	f2a016d3 	movk	x19, #0xb6, lsl #16
    1360:	f2c00ab3 	movk	x19, #0x55, lsl #32
    1364:	f87f6a73 	ldr	x19, [x19, xzr]
    1368:	cb3363f3 	sub	x19, sp, x19
    136c:	d2800014 	mov	x20, #0x0                   	// #0
    1370:	f2a00814 	movk	x20, #0x40, lsl #16
    1374:	eb14027f 	cmp	x19, x20
    1378:	54ff664b 	b.lt	40 <trap_handler+0x40>  // b.tstop
    137c:	d10103ff 	sub	sp, sp, #0x40
    1380:	a90327e8 	stp	x8, x9, [sp, #48]
    1384:	a9022fea 	stp	x10, x11, [sp, #32]
    1388:	a90137ec 	stp	x12, x13, [sp, #16]
    138c:	a9003fee 	stp	x14, x15, [sp]
    1390:	97fffcfc 	bl	780 <func_5>
    1394:	a94327e8 	ldp	x8, x9, [sp, #48]
    1398:	a9422fea 	ldp	x10, x11, [sp, #32]
    139c:	a94137ec 	ldp	x12, x13, [sp, #16]
    13a0:	a9403fee 	ldp	x14, x15, [sp]
    13a4:	910103ff 	add	sp, sp, #0x40
    13a8:	aa0003e8 	mov	x8, x0
    13ac:	d10103ff 	sub	sp, sp, #0x40
    13b0:	a90327e8 	stp	x8, x9, [sp, #48]
    13b4:	a9022fea 	stp	x10, x11, [sp, #32]
    13b8:	a90137ec 	stp	x12, x13, [sp, #16]
    13bc:	a9003fee 	stp	x14, x15, [sp]
    13c0:	97ffff3f 	bl	10bc <func_8>
    13c4:	a94327e8 	ldp	x8, x9, [sp, #48]
    13c8:	a9422fea 	ldp	x10, x11, [sp, #32]
    13cc:	a94137ec 	ldp	x12, x13, [sp, #16]
    13d0:	a9403fee 	ldp	x14, x15, [sp]
    13d4:	910103ff 	add	sp, sp, #0x40
    13d8:	aa0003e9 	mov	x9, x0
    13dc:	2a0903e0 	mov	w0, w9
    13e0:	a8c153f3 	ldp	x19, x20, [sp], #16
    13e4:	a8c17bfd 	ldp	x29, x30, [sp], #16
    13e8:	d65f03c0 	ret

00000000000013ec <_start>:
    13ec:	a9bf7bfd 	stp	x29, x30, [sp, #-16]!
    13f0:	910003fd 	mov	x29, sp
    13f4:	a9bf53f3 	stp	x19, x20, [sp, #-16]!
    13f8:	d2946413 	mov	x19, #0xa320                	// #41760
    13fc:	f2a016d3 	movk	x19, #0xb6, lsl #16
    1400:	f2c00ab3 	movk	x19, #0x55, lsl #32
    1404:	f87f6a73 	ldr	x19, [x19, xzr]
    1408:	cb3363f3 	sub	x19, sp, x19
    140c:	d2800014 	mov	x20, #0x0                   	// #0
    1410:	f2a00814 	movk	x20, #0x40, lsl #16
    1414:	eb14027f 	cmp	x19, x20
    1418:	54ff614b 	b.lt	40 <trap_handler+0x40>  // b.tstop
    141c:	d10103ff 	sub	sp, sp, #0x40
    1420:	a90327e8 	stp	x8, x9, [sp, #48]
    1424:	a9022fea 	stp	x10, x11, [sp, #32]
    1428:	a90137ec 	stp	x12, x13, [sp, #16]
    142c:	a9003fee 	stp	x14, x15, [sp]
    1430:	97fffed1 	bl	f74 <func_6>
    1434:	a94327e8 	ldp	x8, x9, [sp, #48]
    1438:	a9422fea 	ldp	x10, x11, [sp, #32]
    143c:	a94137ec 	ldp	x12, x13, [sp, #16]
    1440:	a9403fee 	ldp	x14, x15, [sp]
    1444:	910103ff 	add	sp, sp, #0x40
    1448:	aa0003e8 	mov	x8, x0
    144c:	d10103ff 	sub	sp, sp, #0x40
    1450:	a90327e8 	stp	x8, x9, [sp, #48]
    1454:	a9022fea 	stp	x10, x11, [sp, #32]
    1458:	a90137ec 	stp	x12, x13, [sp, #16]
    145c:	a9003fee 	stp	x14, x15, [sp]
    1460:	97ffff17 	bl	10bc <func_8>
    1464:	a94327e8 	ldp	x8, x9, [sp, #48]
    1468:	a9422fea 	ldp	x10, x11, [sp, #32]
    146c:	a94137ec 	ldp	x12, x13, [sp, #16]
    1470:	a9403fee 	ldp	x14, x15, [sp]
    1474:	910103ff 	add	sp, sp, #0x40
    1478:	aa0003e9 	mov	x9, x0
    147c:	2a0903e0 	mov	w0, w9
    1480:	a8c153f3 	ldp	x19, x20, [sp], #16
    1484:	a8c17bfd 	ldp	x29, x30, [sp], #16
    1488:	d65f03c0 	ret
