
./tests/machinecode/fractal.o:     file format elf64-littleaarch64

SYMBOL TABLE:
0000000000000000 g     F .text	000000000000005c trap_handler
0000000000000000 g     F .text	0000000000000000 func_0
000000000000005c g     F .text	0000000000000698 func_1
00000000000006f4 g     F .text	00000000000007d0 func_2
0000000000000ec4 g     F .text	000000000000003c func_3
0000000000000f00 g     F .text	000000000000009c func_4
0000000000000f9c g     F .text	00000000000000a0 _start
0000000000000000 g     O .rodata	0000000000000008 globals


Contents of section .text:
 0000 e01f80d2 11000014 200080d2 0f000014  ........ .......
 0010 a00080d2 0d000014 c00080d2 0b000014  ................
 0020 600080d2 09000014 800080d2 07000014  `...............
 0030 200180d2 05000014 400080d2 03000014   .......@.......
 0040 000180d2 01000014 094b91d2 090aa0f2  .........K......
 0050 a90ac0f2 0900e0f2 20011fd6 fd7bbfa9  ........ ....{..
 0060 fd030091 f353bfa9 136494d2 d316a0f2  .....S...d......
 0070 b30ac0f2 736a7ff8 f36333cb 140080d2  ....sj...c3.....
 0080 1408a0f2 7f0214eb cbfdff54 ff8300d1  ...........T....
 0090 e02300b9 e11f00b9 ff1b00b9 ff1700b9  .#..............
 00a0 ff1300b9 ff0f00b9 ff0b00b9 086294d2  .............b..
 00b0 c816a0f2 a80ac0f2 08697ff8 08010091  .........i......
 00c0 08697ff8 09048052 0801094b e81b00b9  .i.....R...K....
 00d0 e81b40b9 e92340b9 0a6c94d2 ca16a0f2  ..@..#@..l......
 00e0 aa0ac0f2 4a697ff8 8afaff34 08610091  ....Ji.....4.a..
 00f0 0b7094d2 cb16a0f2 ab0ac0f2 6b697fb8  .p..........ki..
 0100 6b110051 1f010b6b 88f9ff54 496928b8  k..Q...k...TIi(.
 0110 e81b40b9 e91f40b9 0a6c94d2 ca16a0f2  ..@...@..l......
 0120 aa0ac0f2 4a697ff8 8af8ff34 08510091  ....Ji.....4.Q..
 0130 0b7094d2 cb16a0f2 ab0ac0f2 6b697fb8  .p..........ki..
 0140 6b110051 1f010b6b 88f7ff54 496928b8  k..Q...k...TIi(.
 0150 e81b40b9 096c94d2 c916a0f2 a90ac0f2  ..@..l..........
 0160 29697ff8 a9f6ffb4 08610091 0a7094d2  )i.......a...p..
 0170 ca16a0f2 aa0ac0f2 4a697fb8 4a110051  ........Ji..J..Q
 0180 1f010a6b a8f5ff54 2969a8b8 08008052  ...k...T)i.....R
 0190 3f01086b 6c000054 09008052 02000014  ?..kl..T...R....
 01a0 29008052 e91700b9 28008052 e81300b9  )..R....(..R....
 01b0 e81740b9 29008052 0801090a e80f00b9  ..@.)..R........
 01c0 e81340b9 e80b00b9 e80f40b9 e8020035  ..@.......@....5
 01d0 e81b40b9 096c94d2 c916a0f2 a90ac0f2  ..@..l..........
 01e0 29697ff8 a9f2ffb4 08510091 0a7094d2  )i.......Q...p..
 01f0 ca16a0f2 aa0ac0f2 4a697fb8 4a110051  ........Ji..J..Q
 0200 1f010a6b a8f1ff54 2969a8b8 08008052  ...k...T)i.....R
 0210 3f01086b 6c000054 09008052 02000014  ?..kl..T...R....
 0220 29008052 e90b00b9 e80b40b9 29008052  )..R......@.)..R
 0230 0801090a 68000034 08008052 02000014  ....h..4...R....
 0240 28008052 e8200035 e81b40b9 e91b40b9  (..R. .5..@...@.
 0250 0a6c94d2 ca16a0f2 aa0ac0f2 4a697ff8  .l..........Ji..
 0260 caeeffb4 29610091 0b7094d2 cb16a0f2  ....)a...p......
 0270 ab0ac0f2 6b697fb8 6b110051 3f010b6b  ....ki..k..Q?..k
 0280 c8edff54 4a69a9b8 e91b40b9 0b6c94d2  ...TJi....@..l..
 0290 cb16a0f2 ab0ac0f2 6b697ff8 ebecffb4  ........ki......
 02a0 29610091 0c7094d2 cc16a0f2 ac0ac0f2  )a...p..........
 02b0 8c697fb8 8c110051 3f010c6b e8ebff54  .i.....Q?..k...T
 02c0 6b69a9b8 69008052 49eaff34 3f050031  ki..i..RI..4?..1
 02d0 81000054 0c00b052 7f010c6b e0e9ff54  ...T...R...k...T
 02e0 6b0dc91a 69008052 6b7d091b 4a010b4b  k...i..Rk}..J..K
 02f0 096c94d2 c916a0f2 a90ac0f2 29697ff8  .l..........)i..
 0300 c9e9ff34 08410091 0b7094d2 cb16a0f2  ...4.A...p......
 0310 ab0ac0f2 6b697fb8 6b110051 1f010b6b  ....ki..k..Q...k
 0320 c8e8ff54 2a6928b8 e81b40b9 e91b40b9  ...T*i(...@...@.
 0330 0a6c94d2 ca16a0f2 aa0ac0f2 4a697ff8  .l..........Ji..
 0340 cae7ffb4 29510091 0b7094d2 cb16a0f2  ....)Q...p......
 0350 ab0ac0f2 6b697fb8 6b110051 3f010b6b  ....ki..k..Q?..k
 0360 c8e6ff54 4a69a9b8 e91b40b9 0b6c94d2  ...TJi....@..l..
 0370 cb16a0f2 ab0ac0f2 6b697ff8 ebe5ffb4  ........ki......
 0380 29510091 0c7094d2 cc16a0f2 ac0ac0f2  )Q...p..........
 0390 8c697fb8 8c110051 3f010c6b e8e4ff54  .i.....Q?..k...T
 03a0 6b69a9b8 69008052 49e3ff34 3f050031  ki..i..RI..4?..1
 03b0 81000054 0c00b052 7f010c6b e0e2ff54  ...T...R...k...T
 03c0 6b0dc91a 69008052 6b7d091b 4a010b4b  k...i..Rk}..J..K
 03d0 096c94d2 c916a0f2 a90ac0f2 29697ff8  .l..........)i..
 03e0 c9e2ff34 08310091 0b7094d2 cb16a0f2  ...4.1...p......
 03f0 ab0ac0f2 6b697fb8 6b110051 1f010b6b  ....ki..k..Q...k
 0400 c8e1ff54 2a6928b8 e81b40b9 096c94d2  ...T*i(...@..l..
 0410 c916a0f2 a90ac0f2 29697ff8 e9e0ffb4  ........)i......
 0420 08410091 0a7094d2 ca16a0f2 aa0ac0f2  .A...p..........
 0430 4a697fb8 4a110051 1f010a6b e8dfff54  Ji..J..Q...k...T
 0440 2969a8b8 28008052 3f01086b 60000054  )i..(..R?..k`..T
 0450 09008052 02000014 29008052 28008052  ...R....)..R(..R
 0460 2901080a 69000034 09008052 02000014  )...i..4...R....
 0470 29008052 c9050035 e81b40b9 096c94d2  )..R...5..@..l..
 0480 c916a0f2 a90ac0f2 29697ff8 69ddffb4  ........)i..i...
 0490 08310091 0a7094d2 ca16a0f2 aa0ac0f2  .1...p..........
 04a0 4a697fb8 4a110051 1f010a6b 68dcff54  Ji..J..Q...kh..T
 04b0 2969a8b8 28008052 3f01086b 60000054  )i..(..R?..k`..T
 04c0 09008052 02000014 29008052 28008052  ...R....)..R(..R
 04d0 2901080a 69000034 09008052 02000014  )...i..4...R....
 04e0 29008052 49020035 e81b40b9 09008052  )..RI..5..@....R
 04f0 0a6c94d2 ca16a0f2 aa0ac0f2 4a697ff8  .l..........Ji..
 0500 cad9ff34 08710091 0b7094d2 cb16a0f2  ...4.q...p......
 0510 ab0ac0f2 6b697fb8 6b110051 1f010b6b  ....ki..k..Q...k
 0520 c8d8ff54 496928b8 df0b00b4 e81b40b9  ...TIi(.......@.
 0530 e91b40b9 0a6c94d2 ca16a0f2 aa0ac0f2  ..@..l..........
 0540 4a697ff8 aad7ffb4 29610091 0b7094d2  Ji......)a...p..
 0550 cb16a0f2 ab0ac0f2 6b697fb8 6b110051  ........ki..k..Q
 0560 3f010b6b a8d6ff54 4a69a9b8 69008052  ?..k...TJi..i..R
 0570 09d5ff34 3f050031 81000054 0b00b052  ...4?..1...T...R
 0580 5f010b6b a0d4ff54 4a0dc91a 096c94d2  _..k...TJ....l..
 0590 c916a0f2 a90ac0f2 29697ff8 e9d4ff34  ........)i.....4
 05a0 08610091 0b7094d2 cb16a0f2 ab0ac0f2  .a...p..........
 05b0 6b697fb8 6b110051 1f010b6b e8d3ff54  ki..k..Q...k...T
 05c0 2a6928b8 e81b40b9 e91b40b9 0a6c94d2  *i(...@...@..l..
 05d0 ca16a0f2 aa0ac0f2 4a697ff8 ead2ffb4  ........Ji......
 05e0 29510091 0b7094d2 cb16a0f2 ab0ac0f2  )Q...p..........
 05f0 6b697fb8 6b110051 3f010b6b e8d1ff54  ki..k..Q?..k...T
 0600 4a69a9b8 69008052 49d0ff34 3f050031  Ji..i..RI..4?..1
 0610 81000054 0b00b052 5f010b6b e0cfff54  ...T...R_..k...T
 0620 4a0dc91a 096c94d2 c916a0f2 a90ac0f2  J....l..........
 0630 29697ff8 29d0ff34 08510091 0b7094d2  )i..)..4.Q...p..
 0640 cb16a0f2 ab0ac0f2 6b697fb8 6b110051  ........ki..k..Q
 0650 1f010b6b 28cfff54 2a6928b8 bdfeff17  ...k(..T*i(.....
 0660 e81b40b9 e91f8052 0a6c94d2 ca16a0f2  ..@....R.l......
 0670 aa0ac0f2 4a697ff8 0aceff34 08710091  ....Ji.....4.q..
 0680 0b7094d2 cb16a0f2 ab0ac0f2 6b697fb8  .p..........ki..
 0690 6b110051 1f010b6b 08cdff54 496928b8  k..Q...k...TIi(.
 06a0 e81b40b9 096c94d2 c916a0f2 a90ac0f2  ..@..l..........
 06b0 29697ff8 29ccffb4 08710091 0a7094d2  )i..)....q...p..
 06c0 ca16a0f2 aa0ac0f2 4a697fb8 4a110051  ........Ji..J..Q
 06d0 1f010a6b 28cbff54 2969a8b8 3f0000b4  ...k(..T)i..?...
 06e0 e003092a ff830091 f353c1a8 fd7bc1a8  ...*.....S...{..
 06f0 c0035fd6 fd7bbfa9 fd030091 f353bfa9  .._..{.......S..
 0700 136494d2 d316a0f2 b30ac0f2 736a7ff8  .d..........sj..
 0710 f36333cb 140080d2 1408a0f2 7f0214eb  .c3.............
 0720 0bc9ff54 ff8300d1 ff2300b9 ff1f00b9  ...T.....#......
 0730 ff1b00b9 ff1700b9 ff1300b9 ff0f00b9  ................
 0740 ff0b00b9 086294d2 c816a0f2 a80ac0f2  .....b..........
 0750 08697ff8 08010091 08697ff8 09028052  .i.......i.....R
 0760 0801094b e82300b9 e82340b9 096294d2  ...K.#...#@..b..
 0770 c916a0f2 a90ac0f2 29697ff8 29010091  ........)i..)...
 0780 28693ff8 e82340b9 09008052 0a6c94d2  (i?..#@....R.l..
 0790 ca16a0f2 aa0ac0f2 4a697ff8 eac4ff34  ........Ji.....4
 07a0 08310091 0b7094d2 cb16a0f2 ab0ac0f2  .1...p..........
 07b0 6b697fb8 6b110051 1f010b6b e8c3ff54  ki..k..Q...k...T
 07c0 496928b8 e82340b9 096c94d2 c916a0f2  Ii(..#@..l......
 07d0 a90ac0f2 29697ff8 09c3ffb4 08310091  ....)i.......1..
 07e0 0a7094d2 ca16a0f2 aa0ac0f2 4a697fb8  .p..........Ji..
 07f0 4a110051 1f010a6b 08c2ff54 2969a8b8  J..Q...k...T)i..
 0800 681e8052 3f01086b 6b000054 09008052  h..R?..kk..T...R
 0810 02000014 29008052 28008052 2901080a  ....)..R(..R)...
 0820 69000034 09008052 02000014 29008052  i..4...R....)..R
 0830 892e0035 e82340b9 09008052 0a6c94d2  ...5.#@....R.l..
 0840 ca16a0f2 aa0ac0f2 4a697ff8 6abfff34  ........Ji..j..4
 0850 08210091 0b7094d2 cb16a0f2 ab0ac0f2  .!...p..........
 0860 6b697fb8 6b110051 1f010b6b 68beff54  ki..k..Q...kh..T
 0870 496928b8 e82340b9 096c94d2 c916a0f2  Ii(..#@..l......
 0880 a90ac0f2 29697ff8 89bdffb4 08210091  ....)i.......!..
 0890 0a7094d2 ca16a0f2 aa0ac0f2 4a697fb8  .p..........Ji..
 08a0 4a110051 1f010a6b 88bcff54 2969a8b8  J..Q...k...T)i..
 08b0 681e8052 3f01086b 6b000054 09008052  h..R?..kk..T...R
 08c0 02000014 29008052 28008052 2901080a  ....)..R(..R)...
 08d0 69000034 09008052 02000014 29008052  i..4...R....)..R
 08e0 e9240035 e82340b9 e92340b9 0a6c94d2  .$.5.#@..#@..l..
 08f0 ca16a0f2 aa0ac0f2 4a697ff8 eab9ffb4  ........Ji......
 0900 29210091 0b7094d2 cb16a0f2 ab0ac0f2  )!...p..........
 0910 6b697fb8 6b110051 3f010b6b e8b8ff54  ki..k..Q?..k...T
 0920 4a69a9b8 e92340b9 0b6c94d2 cb16a0f2  Ji...#@..l......
 0930 ab0ac0f2 6b697ff8 0bb8ffb4 29310091  ....ki......)1..
 0940 0c7094d2 cc16a0f2 ac0ac0f2 8c697fb8  .p...........i..
 0950 8c110051 3f010c6b 08b7ff54 6b69a9b8  ...Q?..k...Tki..
 0960 e1030b2a e0030a2a ff0301d1 e82703a9  ...*...*.....'..
 0970 ea2f02a9 ec3701a9 ee3f00a9 b8fdff97  ./...7...?......
 0980 e82743a9 ea2f42a9 ec3741a9 ee3f40a9  .'C../B..7A..?@.
 0990 ff030191 e90300aa 0a6c94d2 ca16a0f2  .........l......
 09a0 aa0ac0f2 4a697ff8 8ab4ff34 08110091  ....Ji.....4....
 09b0 0b7094d2 cb16a0f2 ab0ac0f2 6b697fb8  .p..........ki..
 09c0 6b110051 1f010b6b 88b3ff54 496928b8  k..Q...k...TIi(.
 09d0 e82340b9 096c94d2 c916a0f2 a90ac0f2  .#@..l..........
 09e0 29697ff8 a9b2ffb4 08110091 0a7094d2  )i...........p..
 09f0 ca16a0f2 aa0ac0f2 4a697fb8 4a110051  ........Ji..J..Q
 0a00 1f010a6b a8b1ff54 2969a8b8 e91f00b9  ...k...T)i......
 0a10 e82340b9 096c94d2 c916a0f2 a90ac0f2  .#@..l..........
 0a20 29697ff8 a9b0ffb4 08310091 0a7094d2  )i.......1...p..
 0a30 ca16a0f2 aa0ac0f2 4a697fb8 4a110051  ........Ji..J..Q
 0a40 1f010a6b a8afff54 2969a8b8 681e8052  ...k...T)i..h..R
 0a50 297d081b e82340b9 0a6c94d2 ca16a0f2  )}...#@..l......
 0a60 aa0ac0f2 4a697ff8 8aaeffb4 08210091  ....Ji.......!..
 0a70 0b7094d2 cb16a0f2 ab0ac0f2 6b697fb8  .p..........ki..
 0a80 6b110051 1f010b6b 88adff54 4a69a8b8  k..Q...k...TJi..
 0a90 29010a0b 68008052 297d081b e81f40b9  )...h..R)}....@.
 0aa0 0a6c94d2 ca16a0f2 aa0ac0f2 4a697ff8  .l..........Ji..
 0ab0 4aacff34 29411091 0b7094d2 cb16a0f2  J..4)A...p......
 0ac0 ab0ac0f2 6b697fb8 6b050051 3f010b6b  ....ki..k..Q?..k
 0ad0 48abff54 48792938 e82340b9 096c94d2  H..THy)8.#@..l..
 0ae0 c916a0f2 a90ac0f2 29697ff8 69aaffb4  ........)i..i...
 0af0 08110091 0a7094d2 ca16a0f2 aa0ac0f2  .....p..........
 0b00 4a697fb8 4a110051 1f010a6b 68a9ff54  Ji..J..Q...kh..T
 0b10 2969a8b8 e91b00b9 e82340b9 096c94d2  )i.......#@..l..
 0b20 c916a0f2 a90ac0f2 29697ff8 69a8ffb4  ........)i..i...
 0b30 08310091 0a7094d2 ca16a0f2 aa0ac0f2  .1...p..........
 0b40 4a697fb8 4a110051 1f010a6b 68a7ff54  Ji..J..Q...kh..T
 0b50 2969a8b8 681e8052 297d081b e82340b9  )i..h..R)}...#@.
 0b60 0a6c94d2 ca16a0f2 aa0ac0f2 4a697ff8  .l..........Ji..
 0b70 4aa6ffb4 08210091 0b7094d2 cb16a0f2  J....!...p......
 0b80 ab0ac0f2 6b697fb8 6b110051 1f010b6b  ....ki..k..Q...k
 0b90 48a5ff54 4a69a8b8 29010a0b 68008052  H..TJi..)...h..R
 0ba0 297d081b 28008052 2901080b e81b40b9  )}..(..R).....@.
 0bb0 0a6c94d2 ca16a0f2 aa0ac0f2 4a697ff8  .l..........Ji..
 0bc0 caa3ff34 29411091 0b7094d2 cb16a0f2  ...4)A...p......
 0bd0 ab0ac0f2 6b697fb8 6b050051 3f010b6b  ....ki..k..Q?..k
 0be0 c8a2ff54 48792938 e82340b9 096c94d2  ...THy)8.#@..l..
 0bf0 c916a0f2 a90ac0f2 29697ff8 e9a1ffb4  ........)i......
 0c00 08110091 0a7094d2 ca16a0f2 aa0ac0f2  .....p..........
 0c10 4a697fb8 4a110051 1f010a6b e8a0ff54  Ji..J..Q...k...T
 0c20 2969a8b8 e91700b9 e82340b9 096c94d2  )i.......#@..l..
 0c30 c916a0f2 a90ac0f2 29697ff8 e99fffb4  ........)i......
 0c40 08310091 0a7094d2 ca16a0f2 aa0ac0f2  .1...p..........
 0c50 4a697fb8 4a110051 1f010a6b e89eff54  Ji..J..Q...k...T
 0c60 2969a8b8 681e8052 297d081b e82340b9  )i..h..R)}...#@.
 0c70 0a6c94d2 ca16a0f2 aa0ac0f2 4a697ff8  .l..........Ji..
 0c80 ca9dffb4 08210091 0b7094d2 cb16a0f2  .....!...p......
 0c90 ab0ac0f2 6b697fb8 6b110051 1f010b6b  ....ki..k..Q...k
 0ca0 c89cff54 4a69a8b8 29010a0b 68008052  ...TJi..)...h..R
 0cb0 297d081b 48008052 2901080b e81740b9  )}..H..R).....@.
 0cc0 0a6c94d2 ca16a0f2 aa0ac0f2 4a697ff8  .l..........Ji..
 0cd0 4a9bff34 29411091 0b7094d2 cb16a0f2  J..4)A...p......
 0ce0 ab0ac0f2 6b697fb8 6b050051 3f010b6b  ....ki..k..Q?..k
 0cf0 489aff54 48792938 e82340b9 e92340b9  H..THy)8.#@..#@.
 0d00 0a6c94d2 ca16a0f2 aa0ac0f2 4a697ff8  .l..........Ji..
 0d10 4a99ffb4 29210091 0b7094d2 cb16a0f2  J...)!...p......
 0d20 ab0ac0f2 6b697fb8 6b110051 3f010b6b  ....ki..k..Q?..k
 0d30 4898ff54 4a69a9b8 29008052 4a01090b  H..TJi..)..RJ...
 0d40 096c94d2 c916a0f2 a90ac0f2 29697ff8  .l..........)i..
 0d50 4997ff34 08210091 0b7094d2 cb16a0f2  I..4.!...p......
 0d60 ab0ac0f2 6b697fb8 6b110051 1f010b6b  ....ki..k..Q...k
 0d70 4896ff54 2a6928b8 bffeff17 e82340b9  H..T*i(......#@.
 0d80 e92340b9 0a6c94d2 ca16a0f2 aa0ac0f2  .#@..l..........
 0d90 4a697ff8 2a95ffb4 29310091 0b7094d2  Ji..*...)1...p..
 0da0 cb16a0f2 ab0ac0f2 6b697fb8 6b110051  ........ki..k..Q
 0db0 3f010b6b 2894ff54 4a69a9b8 29008052  ?..k(..TJi..)..R
 0dc0 4a01090b 096c94d2 c916a0f2 a90ac0f2  J....l..........
 0dd0 29697ff8 2993ff34 08310091 0b7094d2  )i..)..4.1...p..
 0de0 cb16a0f2 ab0ac0f2 6b697fb8 6b110051  ........ki..k..Q
 0df0 1f010b6b 2892ff54 2a6928b8 72feff17  ...k(..T*i(.r...
 0e00 08808052 e81300b9 681e8052 e80f00b9  ...R....h..R....
 0e10 e81340b9 e90f40b9 ea0f40b9 6b008052  ..@...@...@.k..R
 0e20 0c828052 2d5b8052 e5030d2a e4030c2a  ...R-[.R...*...*
 0e30 e3030b2a e2030a2a e103092a e003082a  ...*...*...*...*
 0e40 ff0301d1 e82703a9 ea2f02a9 ec3701a9  .....'.../...7..
 0e50 ee3f00a9 084987d2 280ba0f2 a80ac0f2  .?...I..(.......
 0e60 0800e0f2 00013fd6 e82743a9 ea2f42a9  ......?..'C../B.
 0e70 ec3741a9 ee3f40a9 ff030191 e80300aa  .7A..?@.........
 0e80 e80b00b9 e82340b9 09028052 0801090b  .....#@....R....
 0e90 096294d2 c916a0f2 a90ac0f2 29697ff8  .b..........)i..
 0ea0 29010091 28693ff8 e80b40b9 3f0000b4  )...(i?...@.?...
 0eb0 e003082a ff830091 f353c1a8 fd7bc1a8  ...*.....S...{..
 0ec0 c0035fd6 fd7bbfa9 fd030091 f353bfa9  .._..{.......S..
 0ed0 136494d2 d316a0f2 b30ac0f2 736a7ff8  .d..........sj..
 0ee0 f36333cb 140080d2 1408a0f2 7f0214eb  .c3.............
 0ef0 8b8aff54 f353c1a8 fd7bc1a8 c0035fd6  ...T.S...{...._.
 0f00 fd7bbfa9 fd030091 f353bfa9 136494d2  .{.......S...d..
 0f10 d316a0f2 b30ac0f2 736a7ff8 f36333cb  ........sj...c3.
 0f20 140080d2 1408a0f2 7f0214eb ab88ff54  ...............T
 0f30 ff0301d1 e82703a9 ea2f02a9 ec3701a9  .....'.../...7..
 0f40 ee3f00a9 e0ffff97 e82743a9 ea2f42a9  .?.......'C../B.
 0f50 ec3741a9 ee3f40a9 ff030191 e80300aa  .7A..?@.........
 0f60 ff0301d1 e82703a9 ea2f02a9 ec3701a9  .....'.../...7..
 0f70 ee3f00a9 d4ffff97 e82743a9 ea2f42a9  .?.......'C../B.
 0f80 ec3741a9 ee3f40a9 ff030191 e90300aa  .7A..?@.........
 0f90 f353c1a8 fd7bc1a8 c0035fd6 fd7bbfa9  .S...{...._..{..
 0fa0 fd030091 f353bfa9 136494d2 d316a0f2  .....S...d......
 0fb0 b30ac0f2 736a7ff8 f36333cb 140080d2  ....sj...c3.....
 0fc0 1408a0f2 7f0214eb cb83ff54 ff0301d1  ...........T....
 0fd0 e82703a9 ea2f02a9 ec3701a9 ee3f00a9  .'.../...7...?..
 0fe0 c5fdff97 e82743a9 ea2f42a9 ec3741a9  .....'C../B..7A.
 0ff0 ee3f40a9 ff030191 e80300aa ff0301d1  .?@.............
 1000 e82703a9 ea2f02a9 ec3701a9 ee3f00a9  .'.../...7...?..
 1010 bcffff97 e82743a9 ea2f42a9 ec3741a9  .....'C../B..7A.
 1020 ee3f40a9 ff030191 e90300aa e003092a  .?@............*
 1030 f353c1a8 fd7bc1a8 c0035fd6           .S...{...._.    
Contents of section .data:
 0000 10d80200 00000000                    ........        

Disassembly of section .text:

0000000000000000 <trap_handler>:
       0:	d2801fe0 	mov	x0, #0xff                  	// #255
       4:	14000011 	b	48 <trap_handler+0x48>
       8:	d2800020 	mov	x0, #0x1                   	// #1
       c:	1400000f 	b	48 <trap_handler+0x48>
      10:	d28000a0 	mov	x0, #0x5                   	// #5
      14:	1400000d 	b	48 <trap_handler+0x48>
      18:	d28000c0 	mov	x0, #0x6                   	// #6
      1c:	1400000b 	b	48 <trap_handler+0x48>
      20:	d2800060 	mov	x0, #0x3                   	// #3
      24:	14000009 	b	48 <trap_handler+0x48>
      28:	d2800080 	mov	x0, #0x4                   	// #4
      2c:	14000007 	b	48 <trap_handler+0x48>
      30:	d2800120 	mov	x0, #0x9                   	// #9
      34:	14000005 	b	48 <trap_handler+0x48>
      38:	d2800040 	mov	x0, #0x2                   	// #2
      3c:	14000003 	b	48 <trap_handler+0x48>
      40:	d2800100 	mov	x0, #0x8                   	// #8
      44:	14000001 	b	48 <trap_handler+0x48>
      48:	d2914b09 	mov	x9, #0x8a58                	// #35416
      4c:	f2a00a09 	movk	x9, #0x50, lsl #16
      50:	f2c00aa9 	movk	x9, #0x55, lsl #32
      54:	f2e00009 	movk	x9, #0x0, lsl #48
      58:	d61f0120 	br	x9

000000000000005c <func_1>:
      5c:	a9bf7bfd 	stp	x29, x30, [sp, #-16]!
      60:	910003fd 	mov	x29, sp
      64:	a9bf53f3 	stp	x19, x20, [sp, #-16]!
      68:	d2946413 	mov	x19, #0xa320                	// #41760
      6c:	f2a016d3 	movk	x19, #0xb6, lsl #16
      70:	f2c00ab3 	movk	x19, #0x55, lsl #32
      74:	f87f6a73 	ldr	x19, [x19, xzr]
      78:	cb3363f3 	sub	x19, sp, x19
      7c:	d2800014 	mov	x20, #0x0                   	// #0
      80:	f2a00814 	movk	x20, #0x40, lsl #16
      84:	eb14027f 	cmp	x19, x20
      88:	54fffdcb 	b.lt	40 <trap_handler+0x40>  // b.tstop
      8c:	d10083ff 	sub	sp, sp, #0x20
      90:	b90023e0 	str	w0, [sp, #32]
      94:	b9001fe1 	str	w1, [sp, #28]
      98:	b9001bff 	str	wzr, [sp, #24]
      9c:	b90017ff 	str	wzr, [sp, #20]
      a0:	b90013ff 	str	wzr, [sp, #16]
      a4:	b9000fff 	str	wzr, [sp, #12]
      a8:	b9000bff 	str	wzr, [sp, #8]
      ac:	d2946208 	mov	x8, #0xa310                	// #41744
      b0:	f2a016c8 	movk	x8, #0xb6, lsl #16
      b4:	f2c00aa8 	movk	x8, #0x55, lsl #32
      b8:	f87f6908 	ldr	x8, [x8, xzr]
      bc:	91000108 	add	x8, x8, #0x0
      c0:	f87f6908 	ldr	x8, [x8, xzr]
      c4:	52800409 	mov	w9, #0x20                  	// #32
      c8:	4b090108 	sub	w8, w8, w9
      cc:	b9001be8 	str	w8, [sp, #24]
      d0:	b9401be8 	ldr	w8, [sp, #24]
      d4:	b94023e9 	ldr	w9, [sp, #32]
      d8:	d2946c0a 	mov	x10, #0xa360                	// #41824
      dc:	f2a016ca 	movk	x10, #0xb6, lsl #16
      e0:	f2c00aaa 	movk	x10, #0x55, lsl #32
      e4:	f87f694a 	ldr	x10, [x10, xzr]
      e8:	34fffa8a 	cbz	w10, 38 <trap_handler+0x38>
      ec:	91006108 	add	x8, x8, #0x18
      f0:	d294700b 	mov	x11, #0xa380                	// #41856
      f4:	f2a016cb 	movk	x11, #0xb6, lsl #16
      f8:	f2c00aab 	movk	x11, #0x55, lsl #32
      fc:	b87f696b 	ldr	w11, [x11, xzr]
     100:	5100116b 	sub	w11, w11, #0x4
     104:	6b0b011f 	cmp	w8, w11
     108:	54fff988 	b.hi	38 <trap_handler+0x38>  // b.pmore
     10c:	b8286949 	str	w9, [x10, x8]
     110:	b9401be8 	ldr	w8, [sp, #24]
     114:	b9401fe9 	ldr	w9, [sp, #28]
     118:	d2946c0a 	mov	x10, #0xa360                	// #41824
     11c:	f2a016ca 	movk	x10, #0xb6, lsl #16
     120:	f2c00aaa 	movk	x10, #0x55, lsl #32
     124:	f87f694a 	ldr	x10, [x10, xzr]
     128:	34fff88a 	cbz	w10, 38 <trap_handler+0x38>
     12c:	91005108 	add	x8, x8, #0x14
     130:	d294700b 	mov	x11, #0xa380                	// #41856
     134:	f2a016cb 	movk	x11, #0xb6, lsl #16
     138:	f2c00aab 	movk	x11, #0x55, lsl #32
     13c:	b87f696b 	ldr	w11, [x11, xzr]
     140:	5100116b 	sub	w11, w11, #0x4
     144:	6b0b011f 	cmp	w8, w11
     148:	54fff788 	b.hi	38 <trap_handler+0x38>  // b.pmore
     14c:	b8286949 	str	w9, [x10, x8]
     150:	b9401be8 	ldr	w8, [sp, #24]
     154:	d2946c09 	mov	x9, #0xa360                	// #41824
     158:	f2a016c9 	movk	x9, #0xb6, lsl #16
     15c:	f2c00aa9 	movk	x9, #0x55, lsl #32
     160:	f87f6929 	ldr	x9, [x9, xzr]
     164:	b4fff6a9 	cbz	x9, 38 <trap_handler+0x38>
     168:	91006108 	add	x8, x8, #0x18
     16c:	d294700a 	mov	x10, #0xa380                	// #41856
     170:	f2a016ca 	movk	x10, #0xb6, lsl #16
     174:	f2c00aaa 	movk	x10, #0x55, lsl #32
     178:	b87f694a 	ldr	w10, [x10, xzr]
     17c:	5100114a 	sub	w10, w10, #0x4
     180:	6b0a011f 	cmp	w8, w10
     184:	54fff5a8 	b.hi	38 <trap_handler+0x38>  // b.pmore
     188:	b8a86929 	ldrsw	x9, [x9, x8]
     18c:	52800008 	mov	w8, #0x0                   	// #0
     190:	6b08013f 	cmp	w9, w8
     194:	5400006c 	b.gt	1a0 <func_1+0x144>
     198:	52800009 	mov	w9, #0x0                   	// #0
     19c:	14000002 	b	1a4 <func_1+0x148>
     1a0:	52800029 	mov	w9, #0x1                   	// #1
     1a4:	b90017e9 	str	w9, [sp, #20]
     1a8:	52800028 	mov	w8, #0x1                   	// #1
     1ac:	b90013e8 	str	w8, [sp, #16]
     1b0:	b94017e8 	ldr	w8, [sp, #20]
     1b4:	52800029 	mov	w9, #0x1                   	// #1
     1b8:	0a090108 	and	w8, w8, w9
     1bc:	b9000fe8 	str	w8, [sp, #12]
     1c0:	b94013e8 	ldr	w8, [sp, #16]
     1c4:	b9000be8 	str	w8, [sp, #8]
     1c8:	b9400fe8 	ldr	w8, [sp, #12]
     1cc:	350002e8 	cbnz	w8, 228 <func_1+0x1cc>
     1d0:	b9401be8 	ldr	w8, [sp, #24]
     1d4:	d2946c09 	mov	x9, #0xa360                	// #41824
     1d8:	f2a016c9 	movk	x9, #0xb6, lsl #16
     1dc:	f2c00aa9 	movk	x9, #0x55, lsl #32
     1e0:	f87f6929 	ldr	x9, [x9, xzr]
     1e4:	b4fff2a9 	cbz	x9, 38 <trap_handler+0x38>
     1e8:	91005108 	add	x8, x8, #0x14
     1ec:	d294700a 	mov	x10, #0xa380                	// #41856
     1f0:	f2a016ca 	movk	x10, #0xb6, lsl #16
     1f4:	f2c00aaa 	movk	x10, #0x55, lsl #32
     1f8:	b87f694a 	ldr	w10, [x10, xzr]
     1fc:	5100114a 	sub	w10, w10, #0x4
     200:	6b0a011f 	cmp	w8, w10
     204:	54fff1a8 	b.hi	38 <trap_handler+0x38>  // b.pmore
     208:	b8a86929 	ldrsw	x9, [x9, x8]
     20c:	52800008 	mov	w8, #0x0                   	// #0
     210:	6b08013f 	cmp	w9, w8
     214:	5400006c 	b.gt	220 <func_1+0x1c4>
     218:	52800009 	mov	w9, #0x0                   	// #0
     21c:	14000002 	b	224 <func_1+0x1c8>
     220:	52800029 	mov	w9, #0x1                   	// #1
     224:	b9000be9 	str	w9, [sp, #8]
     228:	b9400be8 	ldr	w8, [sp, #8]
     22c:	52800029 	mov	w9, #0x1                   	// #1
     230:	0a090108 	and	w8, w8, w9
     234:	34000068 	cbz	w8, 240 <func_1+0x1e4>
     238:	52800008 	mov	w8, #0x0                   	// #0
     23c:	14000002 	b	244 <func_1+0x1e8>
     240:	52800028 	mov	w8, #0x1                   	// #1
     244:	350020e8 	cbnz	w8, 660 <func_1+0x604>
     248:	b9401be8 	ldr	w8, [sp, #24]
     24c:	b9401be9 	ldr	w9, [sp, #24]
     250:	d2946c0a 	mov	x10, #0xa360                	// #41824
     254:	f2a016ca 	movk	x10, #0xb6, lsl #16
     258:	f2c00aaa 	movk	x10, #0x55, lsl #32
     25c:	f87f694a 	ldr	x10, [x10, xzr]
     260:	b4ffeeca 	cbz	x10, 38 <trap_handler+0x38>
     264:	91006129 	add	x9, x9, #0x18
     268:	d294700b 	mov	x11, #0xa380                	// #41856
     26c:	f2a016cb 	movk	x11, #0xb6, lsl #16
     270:	f2c00aab 	movk	x11, #0x55, lsl #32
     274:	b87f696b 	ldr	w11, [x11, xzr]
     278:	5100116b 	sub	w11, w11, #0x4
     27c:	6b0b013f 	cmp	w9, w11
     280:	54ffedc8 	b.hi	38 <trap_handler+0x38>  // b.pmore
     284:	b8a9694a 	ldrsw	x10, [x10, x9]
     288:	b9401be9 	ldr	w9, [sp, #24]
     28c:	d2946c0b 	mov	x11, #0xa360                	// #41824
     290:	f2a016cb 	movk	x11, #0xb6, lsl #16
     294:	f2c00aab 	movk	x11, #0x55, lsl #32
     298:	f87f696b 	ldr	x11, [x11, xzr]
     29c:	b4ffeceb 	cbz	x11, 38 <trap_handler+0x38>
     2a0:	91006129 	add	x9, x9, #0x18
     2a4:	d294700c 	mov	x12, #0xa380                	// #41856
     2a8:	f2a016cc 	movk	x12, #0xb6, lsl #16
     2ac:	f2c00aac 	movk	x12, #0x55, lsl #32
     2b0:	b87f698c 	ldr	w12, [x12, xzr]
     2b4:	5100118c 	sub	w12, w12, #0x4
     2b8:	6b0c013f 	cmp	w9, w12
     2bc:	54ffebe8 	b.hi	38 <trap_handler+0x38>  // b.pmore
     2c0:	b8a9696b 	ldrsw	x11, [x11, x9]
     2c4:	52800069 	mov	w9, #0x3                   	// #3
     2c8:	34ffea49 	cbz	w9, 10 <trap_handler+0x10>
     2cc:	3100053f 	cmn	w9, #0x1
     2d0:	54000081 	b.ne	2e0 <func_1+0x284>  // b.any
     2d4:	52b0000c 	mov	w12, #0x80000000            	// #-2147483648
     2d8:	6b0c017f 	cmp	w11, w12
     2dc:	54ffe9e0 	b.eq	18 <trap_handler+0x18>  // b.none
     2e0:	1ac90d6b 	sdiv	w11, w11, w9
     2e4:	52800069 	mov	w9, #0x3                   	// #3
     2e8:	1b097d6b 	mul	w11, w11, w9
     2ec:	4b0b014a 	sub	w10, w10, w11
     2f0:	d2946c09 	mov	x9, #0xa360                	// #41824
     2f4:	f2a016c9 	movk	x9, #0xb6, lsl #16
     2f8:	f2c00aa9 	movk	x9, #0x55, lsl #32
     2fc:	f87f6929 	ldr	x9, [x9, xzr]
     300:	34ffe9c9 	cbz	w9, 38 <trap_handler+0x38>
     304:	91004108 	add	x8, x8, #0x10
     308:	d294700b 	mov	x11, #0xa380                	// #41856
     30c:	f2a016cb 	movk	x11, #0xb6, lsl #16
     310:	f2c00aab 	movk	x11, #0x55, lsl #32
     314:	b87f696b 	ldr	w11, [x11, xzr]
     318:	5100116b 	sub	w11, w11, #0x4
     31c:	6b0b011f 	cmp	w8, w11
     320:	54ffe8c8 	b.hi	38 <trap_handler+0x38>  // b.pmore
     324:	b828692a 	str	w10, [x9, x8]
     328:	b9401be8 	ldr	w8, [sp, #24]
     32c:	b9401be9 	ldr	w9, [sp, #24]
     330:	d2946c0a 	mov	x10, #0xa360                	// #41824
     334:	f2a016ca 	movk	x10, #0xb6, lsl #16
     338:	f2c00aaa 	movk	x10, #0x55, lsl #32
     33c:	f87f694a 	ldr	x10, [x10, xzr]
     340:	b4ffe7ca 	cbz	x10, 38 <trap_handler+0x38>
     344:	91005129 	add	x9, x9, #0x14
     348:	d294700b 	mov	x11, #0xa380                	// #41856
     34c:	f2a016cb 	movk	x11, #0xb6, lsl #16
     350:	f2c00aab 	movk	x11, #0x55, lsl #32
     354:	b87f696b 	ldr	w11, [x11, xzr]
     358:	5100116b 	sub	w11, w11, #0x4
     35c:	6b0b013f 	cmp	w9, w11
     360:	54ffe6c8 	b.hi	38 <trap_handler+0x38>  // b.pmore
     364:	b8a9694a 	ldrsw	x10, [x10, x9]
     368:	b9401be9 	ldr	w9, [sp, #24]
     36c:	d2946c0b 	mov	x11, #0xa360                	// #41824
     370:	f2a016cb 	movk	x11, #0xb6, lsl #16
     374:	f2c00aab 	movk	x11, #0x55, lsl #32
     378:	f87f696b 	ldr	x11, [x11, xzr]
     37c:	b4ffe5eb 	cbz	x11, 38 <trap_handler+0x38>
     380:	91005129 	add	x9, x9, #0x14
     384:	d294700c 	mov	x12, #0xa380                	// #41856
     388:	f2a016cc 	movk	x12, #0xb6, lsl #16
     38c:	f2c00aac 	movk	x12, #0x55, lsl #32
     390:	b87f698c 	ldr	w12, [x12, xzr]
     394:	5100118c 	sub	w12, w12, #0x4
     398:	6b0c013f 	cmp	w9, w12
     39c:	54ffe4e8 	b.hi	38 <trap_handler+0x38>  // b.pmore
     3a0:	b8a9696b 	ldrsw	x11, [x11, x9]
     3a4:	52800069 	mov	w9, #0x3                   	// #3
     3a8:	34ffe349 	cbz	w9, 10 <trap_handler+0x10>
     3ac:	3100053f 	cmn	w9, #0x1
     3b0:	54000081 	b.ne	3c0 <func_1+0x364>  // b.any
     3b4:	52b0000c 	mov	w12, #0x80000000            	// #-2147483648
     3b8:	6b0c017f 	cmp	w11, w12
     3bc:	54ffe2e0 	b.eq	18 <trap_handler+0x18>  // b.none
     3c0:	1ac90d6b 	sdiv	w11, w11, w9
     3c4:	52800069 	mov	w9, #0x3                   	// #3
     3c8:	1b097d6b 	mul	w11, w11, w9
     3cc:	4b0b014a 	sub	w10, w10, w11
     3d0:	d2946c09 	mov	x9, #0xa360                	// #41824
     3d4:	f2a016c9 	movk	x9, #0xb6, lsl #16
     3d8:	f2c00aa9 	movk	x9, #0x55, lsl #32
     3dc:	f87f6929 	ldr	x9, [x9, xzr]
     3e0:	34ffe2c9 	cbz	w9, 38 <trap_handler+0x38>
     3e4:	91003108 	add	x8, x8, #0xc
     3e8:	d294700b 	mov	x11, #0xa380                	// #41856
     3ec:	f2a016cb 	movk	x11, #0xb6, lsl #16
     3f0:	f2c00aab 	movk	x11, #0x55, lsl #32
     3f4:	b87f696b 	ldr	w11, [x11, xzr]
     3f8:	5100116b 	sub	w11, w11, #0x4
     3fc:	6b0b011f 	cmp	w8, w11
     400:	54ffe1c8 	b.hi	38 <trap_handler+0x38>  // b.pmore
     404:	b828692a 	str	w10, [x9, x8]
     408:	b9401be8 	ldr	w8, [sp, #24]
     40c:	d2946c09 	mov	x9, #0xa360                	// #41824
     410:	f2a016c9 	movk	x9, #0xb6, lsl #16
     414:	f2c00aa9 	movk	x9, #0x55, lsl #32
     418:	f87f6929 	ldr	x9, [x9, xzr]
     41c:	b4ffe0e9 	cbz	x9, 38 <trap_handler+0x38>
     420:	91004108 	add	x8, x8, #0x10
     424:	d294700a 	mov	x10, #0xa380                	// #41856
     428:	f2a016ca 	movk	x10, #0xb6, lsl #16
     42c:	f2c00aaa 	movk	x10, #0x55, lsl #32
     430:	b87f694a 	ldr	w10, [x10, xzr]
     434:	5100114a 	sub	w10, w10, #0x4
     438:	6b0a011f 	cmp	w8, w10
     43c:	54ffdfe8 	b.hi	38 <trap_handler+0x38>  // b.pmore
     440:	b8a86929 	ldrsw	x9, [x9, x8]
     444:	52800028 	mov	w8, #0x1                   	// #1
     448:	6b08013f 	cmp	w9, w8
     44c:	54000060 	b.eq	458 <func_1+0x3fc>  // b.none
     450:	52800009 	mov	w9, #0x0                   	// #0
     454:	14000002 	b	45c <func_1+0x400>
     458:	52800029 	mov	w9, #0x1                   	// #1
     45c:	52800028 	mov	w8, #0x1                   	// #1
     460:	0a080129 	and	w9, w9, w8
     464:	34000069 	cbz	w9, 470 <func_1+0x414>
     468:	52800009 	mov	w9, #0x0                   	// #0
     46c:	14000002 	b	474 <func_1+0x418>
     470:	52800029 	mov	w9, #0x1                   	// #1
     474:	350005c9 	cbnz	w9, 52c <func_1+0x4d0>
     478:	b9401be8 	ldr	w8, [sp, #24]
     47c:	d2946c09 	mov	x9, #0xa360                	// #41824
     480:	f2a016c9 	movk	x9, #0xb6, lsl #16
     484:	f2c00aa9 	movk	x9, #0x55, lsl #32
     488:	f87f6929 	ldr	x9, [x9, xzr]
     48c:	b4ffdd69 	cbz	x9, 38 <trap_handler+0x38>
     490:	91003108 	add	x8, x8, #0xc
     494:	d294700a 	mov	x10, #0xa380                	// #41856
     498:	f2a016ca 	movk	x10, #0xb6, lsl #16
     49c:	f2c00aaa 	movk	x10, #0x55, lsl #32
     4a0:	b87f694a 	ldr	w10, [x10, xzr]
     4a4:	5100114a 	sub	w10, w10, #0x4
     4a8:	6b0a011f 	cmp	w8, w10
     4ac:	54ffdc68 	b.hi	38 <trap_handler+0x38>  // b.pmore
     4b0:	b8a86929 	ldrsw	x9, [x9, x8]
     4b4:	52800028 	mov	w8, #0x1                   	// #1
     4b8:	6b08013f 	cmp	w9, w8
     4bc:	54000060 	b.eq	4c8 <func_1+0x46c>  // b.none
     4c0:	52800009 	mov	w9, #0x0                   	// #0
     4c4:	14000002 	b	4cc <func_1+0x470>
     4c8:	52800029 	mov	w9, #0x1                   	// #1
     4cc:	52800028 	mov	w8, #0x1                   	// #1
     4d0:	0a080129 	and	w9, w9, w8
     4d4:	34000069 	cbz	w9, 4e0 <func_1+0x484>
     4d8:	52800009 	mov	w9, #0x0                   	// #0
     4dc:	14000002 	b	4e4 <func_1+0x488>
     4e0:	52800029 	mov	w9, #0x1                   	// #1
     4e4:	35000249 	cbnz	w9, 52c <func_1+0x4d0>
     4e8:	b9401be8 	ldr	w8, [sp, #24]
     4ec:	52800009 	mov	w9, #0x0                   	// #0
     4f0:	d2946c0a 	mov	x10, #0xa360                	// #41824
     4f4:	f2a016ca 	movk	x10, #0xb6, lsl #16
     4f8:	f2c00aaa 	movk	x10, #0x55, lsl #32
     4fc:	f87f694a 	ldr	x10, [x10, xzr]
     500:	34ffd9ca 	cbz	w10, 38 <trap_handler+0x38>
     504:	91007108 	add	x8, x8, #0x1c
     508:	d294700b 	mov	x11, #0xa380                	// #41856
     50c:	f2a016cb 	movk	x11, #0xb6, lsl #16
     510:	f2c00aab 	movk	x11, #0x55, lsl #32
     514:	b87f696b 	ldr	w11, [x11, xzr]
     518:	5100116b 	sub	w11, w11, #0x4
     51c:	6b0b011f 	cmp	w8, w11
     520:	54ffd8c8 	b.hi	38 <trap_handler+0x38>  // b.pmore
     524:	b8286949 	str	w9, [x10, x8]
     528:	b4000bdf 	cbz	xzr, 6a0 <func_1+0x644>
     52c:	b9401be8 	ldr	w8, [sp, #24]
     530:	b9401be9 	ldr	w9, [sp, #24]
     534:	d2946c0a 	mov	x10, #0xa360                	// #41824
     538:	f2a016ca 	movk	x10, #0xb6, lsl #16
     53c:	f2c00aaa 	movk	x10, #0x55, lsl #32
     540:	f87f694a 	ldr	x10, [x10, xzr]
     544:	b4ffd7aa 	cbz	x10, 38 <trap_handler+0x38>
     548:	91006129 	add	x9, x9, #0x18
     54c:	d294700b 	mov	x11, #0xa380                	// #41856
     550:	f2a016cb 	movk	x11, #0xb6, lsl #16
     554:	f2c00aab 	movk	x11, #0x55, lsl #32
     558:	b87f696b 	ldr	w11, [x11, xzr]
     55c:	5100116b 	sub	w11, w11, #0x4
     560:	6b0b013f 	cmp	w9, w11
     564:	54ffd6a8 	b.hi	38 <trap_handler+0x38>  // b.pmore
     568:	b8a9694a 	ldrsw	x10, [x10, x9]
     56c:	52800069 	mov	w9, #0x3                   	// #3
     570:	34ffd509 	cbz	w9, 10 <trap_handler+0x10>
     574:	3100053f 	cmn	w9, #0x1
     578:	54000081 	b.ne	588 <func_1+0x52c>  // b.any
     57c:	52b0000b 	mov	w11, #0x80000000            	// #-2147483648
     580:	6b0b015f 	cmp	w10, w11
     584:	54ffd4a0 	b.eq	18 <trap_handler+0x18>  // b.none
     588:	1ac90d4a 	sdiv	w10, w10, w9
     58c:	d2946c09 	mov	x9, #0xa360                	// #41824
     590:	f2a016c9 	movk	x9, #0xb6, lsl #16
     594:	f2c00aa9 	movk	x9, #0x55, lsl #32
     598:	f87f6929 	ldr	x9, [x9, xzr]
     59c:	34ffd4e9 	cbz	w9, 38 <trap_handler+0x38>
     5a0:	91006108 	add	x8, x8, #0x18
     5a4:	d294700b 	mov	x11, #0xa380                	// #41856
     5a8:	f2a016cb 	movk	x11, #0xb6, lsl #16
     5ac:	f2c00aab 	movk	x11, #0x55, lsl #32
     5b0:	b87f696b 	ldr	w11, [x11, xzr]
     5b4:	5100116b 	sub	w11, w11, #0x4
     5b8:	6b0b011f 	cmp	w8, w11
     5bc:	54ffd3e8 	b.hi	38 <trap_handler+0x38>  // b.pmore
     5c0:	b828692a 	str	w10, [x9, x8]
     5c4:	b9401be8 	ldr	w8, [sp, #24]
     5c8:	b9401be9 	ldr	w9, [sp, #24]
     5cc:	d2946c0a 	mov	x10, #0xa360                	// #41824
     5d0:	f2a016ca 	movk	x10, #0xb6, lsl #16
     5d4:	f2c00aaa 	movk	x10, #0x55, lsl #32
     5d8:	f87f694a 	ldr	x10, [x10, xzr]
     5dc:	b4ffd2ea 	cbz	x10, 38 <trap_handler+0x38>
     5e0:	91005129 	add	x9, x9, #0x14
     5e4:	d294700b 	mov	x11, #0xa380                	// #41856
     5e8:	f2a016cb 	movk	x11, #0xb6, lsl #16
     5ec:	f2c00aab 	movk	x11, #0x55, lsl #32
     5f0:	b87f696b 	ldr	w11, [x11, xzr]
     5f4:	5100116b 	sub	w11, w11, #0x4
     5f8:	6b0b013f 	cmp	w9, w11
     5fc:	54ffd1e8 	b.hi	38 <trap_handler+0x38>  // b.pmore
     600:	b8a9694a 	ldrsw	x10, [x10, x9]
     604:	52800069 	mov	w9, #0x3                   	// #3
     608:	34ffd049 	cbz	w9, 10 <trap_handler+0x10>
     60c:	3100053f 	cmn	w9, #0x1
     610:	54000081 	b.ne	620 <func_1+0x5c4>  // b.any
     614:	52b0000b 	mov	w11, #0x80000000            	// #-2147483648
     618:	6b0b015f 	cmp	w10, w11
     61c:	54ffcfe0 	b.eq	18 <trap_handler+0x18>  // b.none
     620:	1ac90d4a 	sdiv	w10, w10, w9
     624:	d2946c09 	mov	x9, #0xa360                	// #41824
     628:	f2a016c9 	movk	x9, #0xb6, lsl #16
     62c:	f2c00aa9 	movk	x9, #0x55, lsl #32
     630:	f87f6929 	ldr	x9, [x9, xzr]
     634:	34ffd029 	cbz	w9, 38 <trap_handler+0x38>
     638:	91005108 	add	x8, x8, #0x14
     63c:	d294700b 	mov	x11, #0xa380                	// #41856
     640:	f2a016cb 	movk	x11, #0xb6, lsl #16
     644:	f2c00aab 	movk	x11, #0x55, lsl #32
     648:	b87f696b 	ldr	w11, [x11, xzr]
     64c:	5100116b 	sub	w11, w11, #0x4
     650:	6b0b011f 	cmp	w8, w11
     654:	54ffcf28 	b.hi	38 <trap_handler+0x38>  // b.pmore
     658:	b828692a 	str	w10, [x9, x8]
     65c:	17fffebd 	b	150 <func_1+0xf4>
     660:	b9401be8 	ldr	w8, [sp, #24]
     664:	52801fe9 	mov	w9, #0xff                  	// #255
     668:	d2946c0a 	mov	x10, #0xa360                	// #41824
     66c:	f2a016ca 	movk	x10, #0xb6, lsl #16
     670:	f2c00aaa 	movk	x10, #0x55, lsl #32
     674:	f87f694a 	ldr	x10, [x10, xzr]
     678:	34ffce0a 	cbz	w10, 38 <trap_handler+0x38>
     67c:	91007108 	add	x8, x8, #0x1c
     680:	d294700b 	mov	x11, #0xa380                	// #41856
     684:	f2a016cb 	movk	x11, #0xb6, lsl #16
     688:	f2c00aab 	movk	x11, #0x55, lsl #32
     68c:	b87f696b 	ldr	w11, [x11, xzr]
     690:	5100116b 	sub	w11, w11, #0x4
     694:	6b0b011f 	cmp	w8, w11
     698:	54ffcd08 	b.hi	38 <trap_handler+0x38>  // b.pmore
     69c:	b8286949 	str	w9, [x10, x8]
     6a0:	b9401be8 	ldr	w8, [sp, #24]
     6a4:	d2946c09 	mov	x9, #0xa360                	// #41824
     6a8:	f2a016c9 	movk	x9, #0xb6, lsl #16
     6ac:	f2c00aa9 	movk	x9, #0x55, lsl #32
     6b0:	f87f6929 	ldr	x9, [x9, xzr]
     6b4:	b4ffcc29 	cbz	x9, 38 <trap_handler+0x38>
     6b8:	91007108 	add	x8, x8, #0x1c
     6bc:	d294700a 	mov	x10, #0xa380                	// #41856
     6c0:	f2a016ca 	movk	x10, #0xb6, lsl #16
     6c4:	f2c00aaa 	movk	x10, #0x55, lsl #32
     6c8:	b87f694a 	ldr	w10, [x10, xzr]
     6cc:	5100114a 	sub	w10, w10, #0x4
     6d0:	6b0a011f 	cmp	w8, w10
     6d4:	54ffcb28 	b.hi	38 <trap_handler+0x38>  // b.pmore
     6d8:	b8a86929 	ldrsw	x9, [x9, x8]
     6dc:	b400003f 	cbz	xzr, 6e0 <func_1+0x684>
     6e0:	2a0903e0 	mov	w0, w9
     6e4:	910083ff 	add	sp, sp, #0x20
     6e8:	a8c153f3 	ldp	x19, x20, [sp], #16
     6ec:	a8c17bfd 	ldp	x29, x30, [sp], #16
     6f0:	d65f03c0 	ret

00000000000006f4 <func_2>:
     6f4:	a9bf7bfd 	stp	x29, x30, [sp, #-16]!
     6f8:	910003fd 	mov	x29, sp
     6fc:	a9bf53f3 	stp	x19, x20, [sp, #-16]!
     700:	d2946413 	mov	x19, #0xa320                	// #41760
     704:	f2a016d3 	movk	x19, #0xb6, lsl #16
     708:	f2c00ab3 	movk	x19, #0x55, lsl #32
     70c:	f87f6a73 	ldr	x19, [x19, xzr]
     710:	cb3363f3 	sub	x19, sp, x19
     714:	d2800014 	mov	x20, #0x0                   	// #0
     718:	f2a00814 	movk	x20, #0x40, lsl #16
     71c:	eb14027f 	cmp	x19, x20
     720:	54ffc90b 	b.lt	40 <trap_handler+0x40>  // b.tstop
     724:	d10083ff 	sub	sp, sp, #0x20
     728:	b90023ff 	str	wzr, [sp, #32]
     72c:	b9001fff 	str	wzr, [sp, #28]
     730:	b9001bff 	str	wzr, [sp, #24]
     734:	b90017ff 	str	wzr, [sp, #20]
     738:	b90013ff 	str	wzr, [sp, #16]
     73c:	b9000fff 	str	wzr, [sp, #12]
     740:	b9000bff 	str	wzr, [sp, #8]
     744:	d2946208 	mov	x8, #0xa310                	// #41744
     748:	f2a016c8 	movk	x8, #0xb6, lsl #16
     74c:	f2c00aa8 	movk	x8, #0x55, lsl #32
     750:	f87f6908 	ldr	x8, [x8, xzr]
     754:	91000108 	add	x8, x8, #0x0
     758:	f87f6908 	ldr	x8, [x8, xzr]
     75c:	52800209 	mov	w9, #0x10                  	// #16
     760:	4b090108 	sub	w8, w8, w9
     764:	b90023e8 	str	w8, [sp, #32]
     768:	b94023e8 	ldr	w8, [sp, #32]
     76c:	d2946209 	mov	x9, #0xa310                	// #41744
     770:	f2a016c9 	movk	x9, #0xb6, lsl #16
     774:	f2c00aa9 	movk	x9, #0x55, lsl #32
     778:	f87f6929 	ldr	x9, [x9, xzr]
     77c:	91000129 	add	x9, x9, #0x0
     780:	f83f6928 	str	x8, [x9, xzr]
     784:	b94023e8 	ldr	w8, [sp, #32]
     788:	52800009 	mov	w9, #0x0                   	// #0
     78c:	d2946c0a 	mov	x10, #0xa360                	// #41824
     790:	f2a016ca 	movk	x10, #0xb6, lsl #16
     794:	f2c00aaa 	movk	x10, #0x55, lsl #32
     798:	f87f694a 	ldr	x10, [x10, xzr]
     79c:	34ffc4ea 	cbz	w10, 38 <trap_handler+0x38>
     7a0:	91003108 	add	x8, x8, #0xc
     7a4:	d294700b 	mov	x11, #0xa380                	// #41856
     7a8:	f2a016cb 	movk	x11, #0xb6, lsl #16
     7ac:	f2c00aab 	movk	x11, #0x55, lsl #32
     7b0:	b87f696b 	ldr	w11, [x11, xzr]
     7b4:	5100116b 	sub	w11, w11, #0x4
     7b8:	6b0b011f 	cmp	w8, w11
     7bc:	54ffc3e8 	b.hi	38 <trap_handler+0x38>  // b.pmore
     7c0:	b8286949 	str	w9, [x10, x8]
     7c4:	b94023e8 	ldr	w8, [sp, #32]
     7c8:	d2946c09 	mov	x9, #0xa360                	// #41824
     7cc:	f2a016c9 	movk	x9, #0xb6, lsl #16
     7d0:	f2c00aa9 	movk	x9, #0x55, lsl #32
     7d4:	f87f6929 	ldr	x9, [x9, xzr]
     7d8:	b4ffc309 	cbz	x9, 38 <trap_handler+0x38>
     7dc:	91003108 	add	x8, x8, #0xc
     7e0:	d294700a 	mov	x10, #0xa380                	// #41856
     7e4:	f2a016ca 	movk	x10, #0xb6, lsl #16
     7e8:	f2c00aaa 	movk	x10, #0x55, lsl #32
     7ec:	b87f694a 	ldr	w10, [x10, xzr]
     7f0:	5100114a 	sub	w10, w10, #0x4
     7f4:	6b0a011f 	cmp	w8, w10
     7f8:	54ffc208 	b.hi	38 <trap_handler+0x38>  // b.pmore
     7fc:	b8a86929 	ldrsw	x9, [x9, x8]
     800:	52801e68 	mov	w8, #0xf3                  	// #243
     804:	6b08013f 	cmp	w9, w8
     808:	5400006b 	b.lt	814 <func_2+0x120>  // b.tstop
     80c:	52800009 	mov	w9, #0x0                   	// #0
     810:	14000002 	b	818 <func_2+0x124>
     814:	52800029 	mov	w9, #0x1                   	// #1
     818:	52800028 	mov	w8, #0x1                   	// #1
     81c:	0a080129 	and	w9, w9, w8
     820:	34000069 	cbz	w9, 82c <func_2+0x138>
     824:	52800009 	mov	w9, #0x0                   	// #0
     828:	14000002 	b	830 <func_2+0x13c>
     82c:	52800029 	mov	w9, #0x1                   	// #1
     830:	35002e89 	cbnz	w9, e00 <func_2+0x70c>
     834:	b94023e8 	ldr	w8, [sp, #32]
     838:	52800009 	mov	w9, #0x0                   	// #0
     83c:	d2946c0a 	mov	x10, #0xa360                	// #41824
     840:	f2a016ca 	movk	x10, #0xb6, lsl #16
     844:	f2c00aaa 	movk	x10, #0x55, lsl #32
     848:	f87f694a 	ldr	x10, [x10, xzr]
     84c:	34ffbf6a 	cbz	w10, 38 <trap_handler+0x38>
     850:	91002108 	add	x8, x8, #0x8
     854:	d294700b 	mov	x11, #0xa380                	// #41856
     858:	f2a016cb 	movk	x11, #0xb6, lsl #16
     85c:	f2c00aab 	movk	x11, #0x55, lsl #32
     860:	b87f696b 	ldr	w11, [x11, xzr]
     864:	5100116b 	sub	w11, w11, #0x4
     868:	6b0b011f 	cmp	w8, w11
     86c:	54ffbe68 	b.hi	38 <trap_handler+0x38>  // b.pmore
     870:	b8286949 	str	w9, [x10, x8]
     874:	b94023e8 	ldr	w8, [sp, #32]
     878:	d2946c09 	mov	x9, #0xa360                	// #41824
     87c:	f2a016c9 	movk	x9, #0xb6, lsl #16
     880:	f2c00aa9 	movk	x9, #0x55, lsl #32
     884:	f87f6929 	ldr	x9, [x9, xzr]
     888:	b4ffbd89 	cbz	x9, 38 <trap_handler+0x38>
     88c:	91002108 	add	x8, x8, #0x8
     890:	d294700a 	mov	x10, #0xa380                	// #41856
     894:	f2a016ca 	movk	x10, #0xb6, lsl #16
     898:	f2c00aaa 	movk	x10, #0x55, lsl #32
     89c:	b87f694a 	ldr	w10, [x10, xzr]
     8a0:	5100114a 	sub	w10, w10, #0x4
     8a4:	6b0a011f 	cmp	w8, w10
     8a8:	54ffbc88 	b.hi	38 <trap_handler+0x38>  // b.pmore
     8ac:	b8a86929 	ldrsw	x9, [x9, x8]
     8b0:	52801e68 	mov	w8, #0xf3                  	// #243
     8b4:	6b08013f 	cmp	w9, w8
     8b8:	5400006b 	b.lt	8c4 <func_2+0x1d0>  // b.tstop
     8bc:	52800009 	mov	w9, #0x0                   	// #0
     8c0:	14000002 	b	8c8 <func_2+0x1d4>
     8c4:	52800029 	mov	w9, #0x1                   	// #1
     8c8:	52800028 	mov	w8, #0x1                   	// #1
     8cc:	0a080129 	and	w9, w9, w8
     8d0:	34000069 	cbz	w9, 8dc <func_2+0x1e8>
     8d4:	52800009 	mov	w9, #0x0                   	// #0
     8d8:	14000002 	b	8e0 <func_2+0x1ec>
     8dc:	52800029 	mov	w9, #0x1                   	// #1
     8e0:	350024e9 	cbnz	w9, d7c <func_2+0x688>
     8e4:	b94023e8 	ldr	w8, [sp, #32]
     8e8:	b94023e9 	ldr	w9, [sp, #32]
     8ec:	d2946c0a 	mov	x10, #0xa360                	// #41824
     8f0:	f2a016ca 	movk	x10, #0xb6, lsl #16
     8f4:	f2c00aaa 	movk	x10, #0x55, lsl #32
     8f8:	f87f694a 	ldr	x10, [x10, xzr]
     8fc:	b4ffb9ea 	cbz	x10, 38 <trap_handler+0x38>
     900:	91002129 	add	x9, x9, #0x8
     904:	d294700b 	mov	x11, #0xa380                	// #41856
     908:	f2a016cb 	movk	x11, #0xb6, lsl #16
     90c:	f2c00aab 	movk	x11, #0x55, lsl #32
     910:	b87f696b 	ldr	w11, [x11, xzr]
     914:	5100116b 	sub	w11, w11, #0x4
     918:	6b0b013f 	cmp	w9, w11
     91c:	54ffb8e8 	b.hi	38 <trap_handler+0x38>  // b.pmore
     920:	b8a9694a 	ldrsw	x10, [x10, x9]
     924:	b94023e9 	ldr	w9, [sp, #32]
     928:	d2946c0b 	mov	x11, #0xa360                	// #41824
     92c:	f2a016cb 	movk	x11, #0xb6, lsl #16
     930:	f2c00aab 	movk	x11, #0x55, lsl #32
     934:	f87f696b 	ldr	x11, [x11, xzr]
     938:	b4ffb80b 	cbz	x11, 38 <trap_handler+0x38>
     93c:	91003129 	add	x9, x9, #0xc
     940:	d294700c 	mov	x12, #0xa380                	// #41856
     944:	f2a016cc 	movk	x12, #0xb6, lsl #16
     948:	f2c00aac 	movk	x12, #0x55, lsl #32
     94c:	b87f698c 	ldr	w12, [x12, xzr]
     950:	5100118c 	sub	w12, w12, #0x4
     954:	6b0c013f 	cmp	w9, w12
     958:	54ffb708 	b.hi	38 <trap_handler+0x38>  // b.pmore
     95c:	b8a9696b 	ldrsw	x11, [x11, x9]
     960:	2a0b03e1 	mov	w1, w11
     964:	2a0a03e0 	mov	w0, w10
     968:	d10103ff 	sub	sp, sp, #0x40
     96c:	a90327e8 	stp	x8, x9, [sp, #48]
     970:	a9022fea 	stp	x10, x11, [sp, #32]
     974:	a90137ec 	stp	x12, x13, [sp, #16]
     978:	a9003fee 	stp	x14, x15, [sp]
     97c:	97fffdb8 	bl	5c <func_1>
     980:	a94327e8 	ldp	x8, x9, [sp, #48]
     984:	a9422fea 	ldp	x10, x11, [sp, #32]
     988:	a94137ec 	ldp	x12, x13, [sp, #16]
     98c:	a9403fee 	ldp	x14, x15, [sp]
     990:	910103ff 	add	sp, sp, #0x40
     994:	aa0003e9 	mov	x9, x0
     998:	d2946c0a 	mov	x10, #0xa360                	// #41824
     99c:	f2a016ca 	movk	x10, #0xb6, lsl #16
     9a0:	f2c00aaa 	movk	x10, #0x55, lsl #32
     9a4:	f87f694a 	ldr	x10, [x10, xzr]
     9a8:	34ffb48a 	cbz	w10, 38 <trap_handler+0x38>
     9ac:	91001108 	add	x8, x8, #0x4
     9b0:	d294700b 	mov	x11, #0xa380                	// #41856
     9b4:	f2a016cb 	movk	x11, #0xb6, lsl #16
     9b8:	f2c00aab 	movk	x11, #0x55, lsl #32
     9bc:	b87f696b 	ldr	w11, [x11, xzr]
     9c0:	5100116b 	sub	w11, w11, #0x4
     9c4:	6b0b011f 	cmp	w8, w11
     9c8:	54ffb388 	b.hi	38 <trap_handler+0x38>  // b.pmore
     9cc:	b8286949 	str	w9, [x10, x8]
     9d0:	b94023e8 	ldr	w8, [sp, #32]
     9d4:	d2946c09 	mov	x9, #0xa360                	// #41824
     9d8:	f2a016c9 	movk	x9, #0xb6, lsl #16
     9dc:	f2c00aa9 	movk	x9, #0x55, lsl #32
     9e0:	f87f6929 	ldr	x9, [x9, xzr]
     9e4:	b4ffb2a9 	cbz	x9, 38 <trap_handler+0x38>
     9e8:	91001108 	add	x8, x8, #0x4
     9ec:	d294700a 	mov	x10, #0xa380                	// #41856
     9f0:	f2a016ca 	movk	x10, #0xb6, lsl #16
     9f4:	f2c00aaa 	movk	x10, #0x55, lsl #32
     9f8:	b87f694a 	ldr	w10, [x10, xzr]
     9fc:	5100114a 	sub	w10, w10, #0x4
     a00:	6b0a011f 	cmp	w8, w10
     a04:	54ffb1a8 	b.hi	38 <trap_handler+0x38>  // b.pmore
     a08:	b8a86929 	ldrsw	x9, [x9, x8]
     a0c:	b9001fe9 	str	w9, [sp, #28]
     a10:	b94023e8 	ldr	w8, [sp, #32]
     a14:	d2946c09 	mov	x9, #0xa360                	// #41824
     a18:	f2a016c9 	movk	x9, #0xb6, lsl #16
     a1c:	f2c00aa9 	movk	x9, #0x55, lsl #32
     a20:	f87f6929 	ldr	x9, [x9, xzr]
     a24:	b4ffb0a9 	cbz	x9, 38 <trap_handler+0x38>
     a28:	91003108 	add	x8, x8, #0xc
     a2c:	d294700a 	mov	x10, #0xa380                	// #41856
     a30:	f2a016ca 	movk	x10, #0xb6, lsl #16
     a34:	f2c00aaa 	movk	x10, #0x55, lsl #32
     a38:	b87f694a 	ldr	w10, [x10, xzr]
     a3c:	5100114a 	sub	w10, w10, #0x4
     a40:	6b0a011f 	cmp	w8, w10
     a44:	54ffafa8 	b.hi	38 <trap_handler+0x38>  // b.pmore
     a48:	b8a86929 	ldrsw	x9, [x9, x8]
     a4c:	52801e68 	mov	w8, #0xf3                  	// #243
     a50:	1b087d29 	mul	w9, w9, w8
     a54:	b94023e8 	ldr	w8, [sp, #32]
     a58:	d2946c0a 	mov	x10, #0xa360                	// #41824
     a5c:	f2a016ca 	movk	x10, #0xb6, lsl #16
     a60:	f2c00aaa 	movk	x10, #0x55, lsl #32
     a64:	f87f694a 	ldr	x10, [x10, xzr]
     a68:	b4ffae8a 	cbz	x10, 38 <trap_handler+0x38>
     a6c:	91002108 	add	x8, x8, #0x8
     a70:	d294700b 	mov	x11, #0xa380                	// #41856
     a74:	f2a016cb 	movk	x11, #0xb6, lsl #16
     a78:	f2c00aab 	movk	x11, #0x55, lsl #32
     a7c:	b87f696b 	ldr	w11, [x11, xzr]
     a80:	5100116b 	sub	w11, w11, #0x4
     a84:	6b0b011f 	cmp	w8, w11
     a88:	54ffad88 	b.hi	38 <trap_handler+0x38>  // b.pmore
     a8c:	b8a8694a 	ldrsw	x10, [x10, x8]
     a90:	0b0a0129 	add	w9, w9, w10
     a94:	52800068 	mov	w8, #0x3                   	// #3
     a98:	1b087d29 	mul	w9, w9, w8
     a9c:	b9401fe8 	ldr	w8, [sp, #28]
     aa0:	d2946c0a 	mov	x10, #0xa360                	// #41824
     aa4:	f2a016ca 	movk	x10, #0xb6, lsl #16
     aa8:	f2c00aaa 	movk	x10, #0x55, lsl #32
     aac:	f87f694a 	ldr	x10, [x10, xzr]
     ab0:	34ffac4a 	cbz	w10, 38 <trap_handler+0x38>
     ab4:	91104129 	add	x9, x9, #0x410
     ab8:	d294700b 	mov	x11, #0xa380                	// #41856
     abc:	f2a016cb 	movk	x11, #0xb6, lsl #16
     ac0:	f2c00aab 	movk	x11, #0x55, lsl #32
     ac4:	b87f696b 	ldr	w11, [x11, xzr]
     ac8:	5100056b 	sub	w11, w11, #0x1
     acc:	6b0b013f 	cmp	w9, w11
     ad0:	54ffab48 	b.hi	38 <trap_handler+0x38>  // b.pmore
     ad4:	38297948 	strb	w8, [x10, x9, lsl #0]
     ad8:	b94023e8 	ldr	w8, [sp, #32]
     adc:	d2946c09 	mov	x9, #0xa360                	// #41824
     ae0:	f2a016c9 	movk	x9, #0xb6, lsl #16
     ae4:	f2c00aa9 	movk	x9, #0x55, lsl #32
     ae8:	f87f6929 	ldr	x9, [x9, xzr]
     aec:	b4ffaa69 	cbz	x9, 38 <trap_handler+0x38>
     af0:	91001108 	add	x8, x8, #0x4
     af4:	d294700a 	mov	x10, #0xa380                	// #41856
     af8:	f2a016ca 	movk	x10, #0xb6, lsl #16
     afc:	f2c00aaa 	movk	x10, #0x55, lsl #32
     b00:	b87f694a 	ldr	w10, [x10, xzr]
     b04:	5100114a 	sub	w10, w10, #0x4
     b08:	6b0a011f 	cmp	w8, w10
     b0c:	54ffa968 	b.hi	38 <trap_handler+0x38>  // b.pmore
     b10:	b8a86929 	ldrsw	x9, [x9, x8]
     b14:	b9001be9 	str	w9, [sp, #24]
     b18:	b94023e8 	ldr	w8, [sp, #32]
     b1c:	d2946c09 	mov	x9, #0xa360                	// #41824
     b20:	f2a016c9 	movk	x9, #0xb6, lsl #16
     b24:	f2c00aa9 	movk	x9, #0x55, lsl #32
     b28:	f87f6929 	ldr	x9, [x9, xzr]
     b2c:	b4ffa869 	cbz	x9, 38 <trap_handler+0x38>
     b30:	91003108 	add	x8, x8, #0xc
     b34:	d294700a 	mov	x10, #0xa380                	// #41856
     b38:	f2a016ca 	movk	x10, #0xb6, lsl #16
     b3c:	f2c00aaa 	movk	x10, #0x55, lsl #32
     b40:	b87f694a 	ldr	w10, [x10, xzr]
     b44:	5100114a 	sub	w10, w10, #0x4
     b48:	6b0a011f 	cmp	w8, w10
     b4c:	54ffa768 	b.hi	38 <trap_handler+0x38>  // b.pmore
     b50:	b8a86929 	ldrsw	x9, [x9, x8]
     b54:	52801e68 	mov	w8, #0xf3                  	// #243
     b58:	1b087d29 	mul	w9, w9, w8
     b5c:	b94023e8 	ldr	w8, [sp, #32]
     b60:	d2946c0a 	mov	x10, #0xa360                	// #41824
     b64:	f2a016ca 	movk	x10, #0xb6, lsl #16
     b68:	f2c00aaa 	movk	x10, #0x55, lsl #32
     b6c:	f87f694a 	ldr	x10, [x10, xzr]
     b70:	b4ffa64a 	cbz	x10, 38 <trap_handler+0x38>
     b74:	91002108 	add	x8, x8, #0x8
     b78:	d294700b 	mov	x11, #0xa380                	// #41856
     b7c:	f2a016cb 	movk	x11, #0xb6, lsl #16
     b80:	f2c00aab 	movk	x11, #0x55, lsl #32
     b84:	b87f696b 	ldr	w11, [x11, xzr]
     b88:	5100116b 	sub	w11, w11, #0x4
     b8c:	6b0b011f 	cmp	w8, w11
     b90:	54ffa548 	b.hi	38 <trap_handler+0x38>  // b.pmore
     b94:	b8a8694a 	ldrsw	x10, [x10, x8]
     b98:	0b0a0129 	add	w9, w9, w10
     b9c:	52800068 	mov	w8, #0x3                   	// #3
     ba0:	1b087d29 	mul	w9, w9, w8
     ba4:	52800028 	mov	w8, #0x1                   	// #1
     ba8:	0b080129 	add	w9, w9, w8
     bac:	b9401be8 	ldr	w8, [sp, #24]
     bb0:	d2946c0a 	mov	x10, #0xa360                	// #41824
     bb4:	f2a016ca 	movk	x10, #0xb6, lsl #16
     bb8:	f2c00aaa 	movk	x10, #0x55, lsl #32
     bbc:	f87f694a 	ldr	x10, [x10, xzr]
     bc0:	34ffa3ca 	cbz	w10, 38 <trap_handler+0x38>
     bc4:	91104129 	add	x9, x9, #0x410
     bc8:	d294700b 	mov	x11, #0xa380                	// #41856
     bcc:	f2a016cb 	movk	x11, #0xb6, lsl #16
     bd0:	f2c00aab 	movk	x11, #0x55, lsl #32
     bd4:	b87f696b 	ldr	w11, [x11, xzr]
     bd8:	5100056b 	sub	w11, w11, #0x1
     bdc:	6b0b013f 	cmp	w9, w11
     be0:	54ffa2c8 	b.hi	38 <trap_handler+0x38>  // b.pmore
     be4:	38297948 	strb	w8, [x10, x9, lsl #0]
     be8:	b94023e8 	ldr	w8, [sp, #32]
     bec:	d2946c09 	mov	x9, #0xa360                	// #41824
     bf0:	f2a016c9 	movk	x9, #0xb6, lsl #16
     bf4:	f2c00aa9 	movk	x9, #0x55, lsl #32
     bf8:	f87f6929 	ldr	x9, [x9, xzr]
     bfc:	b4ffa1e9 	cbz	x9, 38 <trap_handler+0x38>
     c00:	91001108 	add	x8, x8, #0x4
     c04:	d294700a 	mov	x10, #0xa380                	// #41856
     c08:	f2a016ca 	movk	x10, #0xb6, lsl #16
     c0c:	f2c00aaa 	movk	x10, #0x55, lsl #32
     c10:	b87f694a 	ldr	w10, [x10, xzr]
     c14:	5100114a 	sub	w10, w10, #0x4
     c18:	6b0a011f 	cmp	w8, w10
     c1c:	54ffa0e8 	b.hi	38 <trap_handler+0x38>  // b.pmore
     c20:	b8a86929 	ldrsw	x9, [x9, x8]
     c24:	b90017e9 	str	w9, [sp, #20]
     c28:	b94023e8 	ldr	w8, [sp, #32]
     c2c:	d2946c09 	mov	x9, #0xa360                	// #41824
     c30:	f2a016c9 	movk	x9, #0xb6, lsl #16
     c34:	f2c00aa9 	movk	x9, #0x55, lsl #32
     c38:	f87f6929 	ldr	x9, [x9, xzr]
     c3c:	b4ff9fe9 	cbz	x9, 38 <trap_handler+0x38>
     c40:	91003108 	add	x8, x8, #0xc
     c44:	d294700a 	mov	x10, #0xa380                	// #41856
     c48:	f2a016ca 	movk	x10, #0xb6, lsl #16
     c4c:	f2c00aaa 	movk	x10, #0x55, lsl #32
     c50:	b87f694a 	ldr	w10, [x10, xzr]
     c54:	5100114a 	sub	w10, w10, #0x4
     c58:	6b0a011f 	cmp	w8, w10
     c5c:	54ff9ee8 	b.hi	38 <trap_handler+0x38>  // b.pmore
     c60:	b8a86929 	ldrsw	x9, [x9, x8]
     c64:	52801e68 	mov	w8, #0xf3                  	// #243
     c68:	1b087d29 	mul	w9, w9, w8
     c6c:	b94023e8 	ldr	w8, [sp, #32]
     c70:	d2946c0a 	mov	x10, #0xa360                	// #41824
     c74:	f2a016ca 	movk	x10, #0xb6, lsl #16
     c78:	f2c00aaa 	movk	x10, #0x55, lsl #32
     c7c:	f87f694a 	ldr	x10, [x10, xzr]
     c80:	b4ff9dca 	cbz	x10, 38 <trap_handler+0x38>
     c84:	91002108 	add	x8, x8, #0x8
     c88:	d294700b 	mov	x11, #0xa380                	// #41856
     c8c:	f2a016cb 	movk	x11, #0xb6, lsl #16
     c90:	f2c00aab 	movk	x11, #0x55, lsl #32
     c94:	b87f696b 	ldr	w11, [x11, xzr]
     c98:	5100116b 	sub	w11, w11, #0x4
     c9c:	6b0b011f 	cmp	w8, w11
     ca0:	54ff9cc8 	b.hi	38 <trap_handler+0x38>  // b.pmore
     ca4:	b8a8694a 	ldrsw	x10, [x10, x8]
     ca8:	0b0a0129 	add	w9, w9, w10
     cac:	52800068 	mov	w8, #0x3                   	// #3
     cb0:	1b087d29 	mul	w9, w9, w8
     cb4:	52800048 	mov	w8, #0x2                   	// #2
     cb8:	0b080129 	add	w9, w9, w8
     cbc:	b94017e8 	ldr	w8, [sp, #20]
     cc0:	d2946c0a 	mov	x10, #0xa360                	// #41824
     cc4:	f2a016ca 	movk	x10, #0xb6, lsl #16
     cc8:	f2c00aaa 	movk	x10, #0x55, lsl #32
     ccc:	f87f694a 	ldr	x10, [x10, xzr]
     cd0:	34ff9b4a 	cbz	w10, 38 <trap_handler+0x38>
     cd4:	91104129 	add	x9, x9, #0x410
     cd8:	d294700b 	mov	x11, #0xa380                	// #41856
     cdc:	f2a016cb 	movk	x11, #0xb6, lsl #16
     ce0:	f2c00aab 	movk	x11, #0x55, lsl #32
     ce4:	b87f696b 	ldr	w11, [x11, xzr]
     ce8:	5100056b 	sub	w11, w11, #0x1
     cec:	6b0b013f 	cmp	w9, w11
     cf0:	54ff9a48 	b.hi	38 <trap_handler+0x38>  // b.pmore
     cf4:	38297948 	strb	w8, [x10, x9, lsl #0]
     cf8:	b94023e8 	ldr	w8, [sp, #32]
     cfc:	b94023e9 	ldr	w9, [sp, #32]
     d00:	d2946c0a 	mov	x10, #0xa360                	// #41824
     d04:	f2a016ca 	movk	x10, #0xb6, lsl #16
     d08:	f2c00aaa 	movk	x10, #0x55, lsl #32
     d0c:	f87f694a 	ldr	x10, [x10, xzr]
     d10:	b4ff994a 	cbz	x10, 38 <trap_handler+0x38>
     d14:	91002129 	add	x9, x9, #0x8
     d18:	d294700b 	mov	x11, #0xa380                	// #41856
     d1c:	f2a016cb 	movk	x11, #0xb6, lsl #16
     d20:	f2c00aab 	movk	x11, #0x55, lsl #32
     d24:	b87f696b 	ldr	w11, [x11, xzr]
     d28:	5100116b 	sub	w11, w11, #0x4
     d2c:	6b0b013f 	cmp	w9, w11
     d30:	54ff9848 	b.hi	38 <trap_handler+0x38>  // b.pmore
     d34:	b8a9694a 	ldrsw	x10, [x10, x9]
     d38:	52800029 	mov	w9, #0x1                   	// #1
     d3c:	0b09014a 	add	w10, w10, w9
     d40:	d2946c09 	mov	x9, #0xa360                	// #41824
     d44:	f2a016c9 	movk	x9, #0xb6, lsl #16
     d48:	f2c00aa9 	movk	x9, #0x55, lsl #32
     d4c:	f87f6929 	ldr	x9, [x9, xzr]
     d50:	34ff9749 	cbz	w9, 38 <trap_handler+0x38>
     d54:	91002108 	add	x8, x8, #0x8
     d58:	d294700b 	mov	x11, #0xa380                	// #41856
     d5c:	f2a016cb 	movk	x11, #0xb6, lsl #16
     d60:	f2c00aab 	movk	x11, #0x55, lsl #32
     d64:	b87f696b 	ldr	w11, [x11, xzr]
     d68:	5100116b 	sub	w11, w11, #0x4
     d6c:	6b0b011f 	cmp	w8, w11
     d70:	54ff9648 	b.hi	38 <trap_handler+0x38>  // b.pmore
     d74:	b828692a 	str	w10, [x9, x8]
     d78:	17fffebf 	b	874 <func_2+0x180>
     d7c:	b94023e8 	ldr	w8, [sp, #32]
     d80:	b94023e9 	ldr	w9, [sp, #32]
     d84:	d2946c0a 	mov	x10, #0xa360                	// #41824
     d88:	f2a016ca 	movk	x10, #0xb6, lsl #16
     d8c:	f2c00aaa 	movk	x10, #0x55, lsl #32
     d90:	f87f694a 	ldr	x10, [x10, xzr]
     d94:	b4ff952a 	cbz	x10, 38 <trap_handler+0x38>
     d98:	91003129 	add	x9, x9, #0xc
     d9c:	d294700b 	mov	x11, #0xa380                	// #41856
     da0:	f2a016cb 	movk	x11, #0xb6, lsl #16
     da4:	f2c00aab 	movk	x11, #0x55, lsl #32
     da8:	b87f696b 	ldr	w11, [x11, xzr]
     dac:	5100116b 	sub	w11, w11, #0x4
     db0:	6b0b013f 	cmp	w9, w11
     db4:	54ff9428 	b.hi	38 <trap_handler+0x38>  // b.pmore
     db8:	b8a9694a 	ldrsw	x10, [x10, x9]
     dbc:	52800029 	mov	w9, #0x1                   	// #1
     dc0:	0b09014a 	add	w10, w10, w9
     dc4:	d2946c09 	mov	x9, #0xa360                	// #41824
     dc8:	f2a016c9 	movk	x9, #0xb6, lsl #16
     dcc:	f2c00aa9 	movk	x9, #0x55, lsl #32
     dd0:	f87f6929 	ldr	x9, [x9, xzr]
     dd4:	34ff9329 	cbz	w9, 38 <trap_handler+0x38>
     dd8:	91003108 	add	x8, x8, #0xc
     ddc:	d294700b 	mov	x11, #0xa380                	// #41856
     de0:	f2a016cb 	movk	x11, #0xb6, lsl #16
     de4:	f2c00aab 	movk	x11, #0x55, lsl #32
     de8:	b87f696b 	ldr	w11, [x11, xzr]
     dec:	5100116b 	sub	w11, w11, #0x4
     df0:	6b0b011f 	cmp	w8, w11
     df4:	54ff9228 	b.hi	38 <trap_handler+0x38>  // b.pmore
     df8:	b828692a 	str	w10, [x9, x8]
     dfc:	17fffe72 	b	7c4 <func_2+0xd0>
     e00:	52808008 	mov	w8, #0x400                 	// #1024
     e04:	b90013e8 	str	w8, [sp, #16]
     e08:	52801e68 	mov	w8, #0xf3                  	// #243
     e0c:	b9000fe8 	str	w8, [sp, #12]
     e10:	b94013e8 	ldr	w8, [sp, #16]
     e14:	b9400fe9 	ldr	w9, [sp, #12]
     e18:	b9400fea 	ldr	w10, [sp, #12]
     e1c:	5280006b 	mov	w11, #0x3                   	// #3
     e20:	5280820c 	mov	w12, #0x410                 	// #1040
     e24:	52805b2d 	mov	w13, #0x2d9                 	// #729
     e28:	2a0d03e5 	mov	w5, w13
     e2c:	2a0c03e4 	mov	w4, w12
     e30:	2a0b03e3 	mov	w3, w11
     e34:	2a0a03e2 	mov	w2, w10
     e38:	2a0903e1 	mov	w1, w9
     e3c:	2a0803e0 	mov	w0, w8
     e40:	d10103ff 	sub	sp, sp, #0x40
     e44:	a90327e8 	stp	x8, x9, [sp, #48]
     e48:	a9022fea 	stp	x10, x11, [sp, #32]
     e4c:	a90137ec 	stp	x12, x13, [sp, #16]
     e50:	a9003fee 	stp	x14, x15, [sp]
     e54:	d2874908 	mov	x8, #0x3a48                	// #14920
     e58:	f2a00b28 	movk	x8, #0x59, lsl #16
     e5c:	f2c00aa8 	movk	x8, #0x55, lsl #32
     e60:	f2e00008 	movk	x8, #0x0, lsl #48
     e64:	d63f0100 	blr	x8
     e68:	a94327e8 	ldp	x8, x9, [sp, #48]
     e6c:	a9422fea 	ldp	x10, x11, [sp, #32]
     e70:	a94137ec 	ldp	x12, x13, [sp, #16]
     e74:	a9403fee 	ldp	x14, x15, [sp]
     e78:	910103ff 	add	sp, sp, #0x40
     e7c:	aa0003e8 	mov	x8, x0
     e80:	b9000be8 	str	w8, [sp, #8]
     e84:	b94023e8 	ldr	w8, [sp, #32]
     e88:	52800209 	mov	w9, #0x10                  	// #16
     e8c:	0b090108 	add	w8, w8, w9
     e90:	d2946209 	mov	x9, #0xa310                	// #41744
     e94:	f2a016c9 	movk	x9, #0xb6, lsl #16
     e98:	f2c00aa9 	movk	x9, #0x55, lsl #32
     e9c:	f87f6929 	ldr	x9, [x9, xzr]
     ea0:	91000129 	add	x9, x9, #0x0
     ea4:	f83f6928 	str	x8, [x9, xzr]
     ea8:	b9400be8 	ldr	w8, [sp, #8]
     eac:	b400003f 	cbz	xzr, eb0 <func_2+0x7bc>
     eb0:	2a0803e0 	mov	w0, w8
     eb4:	910083ff 	add	sp, sp, #0x20
     eb8:	a8c153f3 	ldp	x19, x20, [sp], #16
     ebc:	a8c17bfd 	ldp	x29, x30, [sp], #16
     ec0:	d65f03c0 	ret

0000000000000ec4 <func_3>:
     ec4:	a9bf7bfd 	stp	x29, x30, [sp, #-16]!
     ec8:	910003fd 	mov	x29, sp
     ecc:	a9bf53f3 	stp	x19, x20, [sp, #-16]!
     ed0:	d2946413 	mov	x19, #0xa320                	// #41760
     ed4:	f2a016d3 	movk	x19, #0xb6, lsl #16
     ed8:	f2c00ab3 	movk	x19, #0x55, lsl #32
     edc:	f87f6a73 	ldr	x19, [x19, xzr]
     ee0:	cb3363f3 	sub	x19, sp, x19
     ee4:	d2800014 	mov	x20, #0x0                   	// #0
     ee8:	f2a00814 	movk	x20, #0x40, lsl #16
     eec:	eb14027f 	cmp	x19, x20
     ef0:	54ff8a8b 	b.lt	40 <trap_handler+0x40>  // b.tstop
     ef4:	a8c153f3 	ldp	x19, x20, [sp], #16
     ef8:	a8c17bfd 	ldp	x29, x30, [sp], #16
     efc:	d65f03c0 	ret

0000000000000f00 <func_4>:
     f00:	a9bf7bfd 	stp	x29, x30, [sp, #-16]!
     f04:	910003fd 	mov	x29, sp
     f08:	a9bf53f3 	stp	x19, x20, [sp, #-16]!
     f0c:	d2946413 	mov	x19, #0xa320                	// #41760
     f10:	f2a016d3 	movk	x19, #0xb6, lsl #16
     f14:	f2c00ab3 	movk	x19, #0x55, lsl #32
     f18:	f87f6a73 	ldr	x19, [x19, xzr]
     f1c:	cb3363f3 	sub	x19, sp, x19
     f20:	d2800014 	mov	x20, #0x0                   	// #0
     f24:	f2a00814 	movk	x20, #0x40, lsl #16
     f28:	eb14027f 	cmp	x19, x20
     f2c:	54ff88ab 	b.lt	40 <trap_handler+0x40>  // b.tstop
     f30:	d10103ff 	sub	sp, sp, #0x40
     f34:	a90327e8 	stp	x8, x9, [sp, #48]
     f38:	a9022fea 	stp	x10, x11, [sp, #32]
     f3c:	a90137ec 	stp	x12, x13, [sp, #16]
     f40:	a9003fee 	stp	x14, x15, [sp]
     f44:	97ffffe0 	bl	ec4 <func_3>
     f48:	a94327e8 	ldp	x8, x9, [sp, #48]
     f4c:	a9422fea 	ldp	x10, x11, [sp, #32]
     f50:	a94137ec 	ldp	x12, x13, [sp, #16]
     f54:	a9403fee 	ldp	x14, x15, [sp]
     f58:	910103ff 	add	sp, sp, #0x40
     f5c:	aa0003e8 	mov	x8, x0
     f60:	d10103ff 	sub	sp, sp, #0x40
     f64:	a90327e8 	stp	x8, x9, [sp, #48]
     f68:	a9022fea 	stp	x10, x11, [sp, #32]
     f6c:	a90137ec 	stp	x12, x13, [sp, #16]
     f70:	a9003fee 	stp	x14, x15, [sp]
     f74:	97ffffd4 	bl	ec4 <func_3>
     f78:	a94327e8 	ldp	x8, x9, [sp, #48]
     f7c:	a9422fea 	ldp	x10, x11, [sp, #32]
     f80:	a94137ec 	ldp	x12, x13, [sp, #16]
     f84:	a9403fee 	ldp	x14, x15, [sp]
     f88:	910103ff 	add	sp, sp, #0x40
     f8c:	aa0003e9 	mov	x9, x0
     f90:	a8c153f3 	ldp	x19, x20, [sp], #16
     f94:	a8c17bfd 	ldp	x29, x30, [sp], #16
     f98:	d65f03c0 	ret

0000000000000f9c <_start>:
     f9c:	a9bf7bfd 	stp	x29, x30, [sp, #-16]!
     fa0:	910003fd 	mov	x29, sp
     fa4:	a9bf53f3 	stp	x19, x20, [sp, #-16]!
     fa8:	d2946413 	mov	x19, #0xa320                	// #41760
     fac:	f2a016d3 	movk	x19, #0xb6, lsl #16
     fb0:	f2c00ab3 	movk	x19, #0x55, lsl #32
     fb4:	f87f6a73 	ldr	x19, [x19, xzr]
     fb8:	cb3363f3 	sub	x19, sp, x19
     fbc:	d2800014 	mov	x20, #0x0                   	// #0
     fc0:	f2a00814 	movk	x20, #0x40, lsl #16
     fc4:	eb14027f 	cmp	x19, x20
     fc8:	54ff83cb 	b.lt	40 <trap_handler+0x40>  // b.tstop
     fcc:	d10103ff 	sub	sp, sp, #0x40
     fd0:	a90327e8 	stp	x8, x9, [sp, #48]
     fd4:	a9022fea 	stp	x10, x11, [sp, #32]
     fd8:	a90137ec 	stp	x12, x13, [sp, #16]
     fdc:	a9003fee 	stp	x14, x15, [sp]
     fe0:	97fffdc5 	bl	6f4 <func_2>
     fe4:	a94327e8 	ldp	x8, x9, [sp, #48]
     fe8:	a9422fea 	ldp	x10, x11, [sp, #32]
     fec:	a94137ec 	ldp	x12, x13, [sp, #16]
     ff0:	a9403fee 	ldp	x14, x15, [sp]
     ff4:	910103ff 	add	sp, sp, #0x40
     ff8:	aa0003e8 	mov	x8, x0
     ffc:	d10103ff 	sub	sp, sp, #0x40
    1000:	a90327e8 	stp	x8, x9, [sp, #48]
    1004:	a9022fea 	stp	x10, x11, [sp, #32]
    1008:	a90137ec 	stp	x12, x13, [sp, #16]
    100c:	a9003fee 	stp	x14, x15, [sp]
    1010:	97ffffbc 	bl	f00 <func_4>
    1014:	a94327e8 	ldp	x8, x9, [sp, #48]
    1018:	a9422fea 	ldp	x10, x11, [sp, #32]
    101c:	a94137ec 	ldp	x12, x13, [sp, #16]
    1020:	a9403fee 	ldp	x14, x15, [sp]
    1024:	910103ff 	add	sp, sp, #0x40
    1028:	aa0003e9 	mov	x9, x0
    102c:	2a0903e0 	mov	w0, w9
    1030:	a8c153f3 	ldp	x19, x20, [sp], #16
    1034:	a8c17bfd 	ldp	x29, x30, [sp], #16
    1038:	d65f03c0 	ret
