
./tests/machinecode/linear-memory-store.0.o:     file format elf64-littleaarch64

SYMBOL TABLE:
0000000000000000 g     F .text	000000000000005c trap_handler
000000000000005c g     F .text	0000000000000078 as-block-value
00000000000000d4 g     F .text	0000000000000078 as-loop-value
000000000000014c g     F .text	000000000000007c as-br-value
00000000000001c8 g     F .text	0000000000000080 as-br_if-value
0000000000000248 g     F .text	0000000000000080 as-br_if-value-cond
00000000000002c8 g     F .text	000000000000007c as-return-value
0000000000000344 g     F .text	0000000000000080 as-if-then
00000000000003c4 g     F .text	0000000000000084 as-if-else
0000000000000448 g     F .text	0000000000000088 address-as-param


Contents of section .text:
 0000 e01f80d2 11000014 200080d2 0f000014  ........ .......
 0010 a00080d2 0d000014 c00080d2 0b000014  ................
 0020 600080d2 09000014 800080d2 07000014  `...............
 0030 200180d2 05000014 400080d2 03000014   .......@.......
 0040 000180d2 01000014 094b91d2 090aa0f2  .........K......
 0050 a90ac0f2 0900e0f2 20011fd6 fd7bbfa9  ........ ....{..
 0060 fd030091 f353bfa9 136494d2 d316a0f2  .....S...d......
 0070 b30ac0f2 736a7ff8 f36333cb 140080d2  ....sj...c3.....
 0080 1408a0f2 7f0214eb cbfdff54 08008052  ...........T...R
 0090 29008052 0a6c94d2 ca16a0f2 aa0ac0f2  )..R.l..........
 00a0 4a697ff8 aafcff34 0b7094d2 cb16a0f2  Ji.....4.p......
 00b0 ab0ac0f2 6b697fb8 6b110051 1f010b6b  ....ki..k..Q...k
 00c0 c8fbff54 496928b8 f353c1a8 fd7bc1a8  ...TIi(..S...{..
 00d0 c0035fd6 fd7bbfa9 fd030091 f353bfa9  .._..{.......S..
 00e0 136494d2 d316a0f2 b30ac0f2 736a7ff8  .d..........sj..
 00f0 f36333cb 140080d2 1408a0f2 7f0214eb  .c3.............
 0100 0bfaff54 08008052 29008052 0a6c94d2  ...T...R)..R.l..
 0110 ca16a0f2 aa0ac0f2 4a697ff8 eaf8ff34  ........Ji.....4
 0120 0b7094d2 cb16a0f2 ab0ac0f2 6b697fb8  .p..........ki..
 0130 6b110051 1f010b6b 08f8ff54 496928b8  k..Q...k...TIi(.
 0140 f353c1a8 fd7bc1a8 c0035fd6 fd7bbfa9  .S...{...._..{..
 0150 fd030091 f353bfa9 136494d2 d316a0f2  .....S...d......
 0160 b30ac0f2 736a7ff8 f36333cb 140080d2  ....sj...c3.....
 0170 1408a0f2 7f0214eb 4bf6ff54 08008052  ........K..T...R
 0180 29008052 0a6c94d2 ca16a0f2 aa0ac0f2  )..R.l..........
 0190 4a697ff8 2af5ff34 0b7094d2 cb16a0f2  Ji..*..4.p......
 01a0 ab0ac0f2 6b697fb8 6b110051 1f010b6b  ....ki..k..Q...k
 01b0 48f4ff54 496928b8 3f0000b4 f353c1a8  H..TIi(.?....S..
 01c0 fd7bc1a8 c0035fd6 fd7bbfa9 fd030091  .{...._..{......
 01d0 f353bfa9 136494d2 d316a0f2 b30ac0f2  .S...d..........
 01e0 736a7ff8 f36333cb 140080d2 1408a0f2  sj...c3.........
 01f0 7f0214eb 6bf2ff54 08008052 29008052  ....k..T...R)..R
 0200 0a6c94d2 ca16a0f2 aa0ac0f2 4a697ff8  .l..........Ji..
 0210 4af1ff34 0b7094d2 cb16a0f2 ab0ac0f2  J..4.p..........
 0220 6b697fb8 6b110051 1f010b6b 68f0ff54  ki..k..Q...kh..T
 0230 496928b8 28008052 28000035 f353c1a8  Ii(.(..R(..5.S..
 0240 fd7bc1a8 c0035fd6 fd7bbfa9 fd030091  .{...._..{......
 0250 f353bfa9 136494d2 d316a0f2 b30ac0f2  .S...d..........
 0260 736a7ff8 f36333cb 140080d2 1408a0f2  sj...c3.........
 0270 7f0214eb 6beeff54 c8008052 09008052  ....k..T...R...R
 0280 2a008052 0b6c94d2 cb16a0f2 ab0ac0f2  *..R.l..........
 0290 6b697ff8 2bedff34 0c7094d2 cc16a0f2  ki..+..4.p......
 02a0 ac0ac0f2 8c697fb8 8c110051 3f010c6b  .....i.....Q?..k
 02b0 48ecff54 6a6929b8 28000035 f353c1a8  H..Tji).(..5.S..
 02c0 fd7bc1a8 c0035fd6 fd7bbfa9 fd030091  .{...._..{......
 02d0 f353bfa9 136494d2 d316a0f2 b30ac0f2  .S...d..........
 02e0 736a7ff8 f36333cb 140080d2 1408a0f2  sj...c3.........
 02f0 7f0214eb 6beaff54 08008052 29008052  ....k..T...R)..R
 0300 0a6c94d2 ca16a0f2 aa0ac0f2 4a697ff8  .l..........Ji..
 0310 4ae9ff34 0b7094d2 cb16a0f2 ab0ac0f2  J..4.p..........
 0320 6b697fb8 6b110051 1f010b6b 68e8ff54  ki..k..Q...kh..T
 0330 496928b8 3f0000b4 f353c1a8 fd7bc1a8  Ii(.?....S...{..
 0340 c0035fd6 fd7bbfa9 fd030091 f353bfa9  .._..{.......S..
 0350 136494d2 d316a0f2 b30ac0f2 736a7ff8  .d..........sj..
 0360 f36333cb 140080d2 1408a0f2 7f0214eb  .c3.............
 0370 8be6ff54 28008052 08020034 08008052  ...T(..R...4...R
 0380 29008052 0a6c94d2 ca16a0f2 aa0ac0f2  )..R.l..........
 0390 4a697ff8 2ae5ff34 0b7094d2 cb16a0f2  Ji..*..4.p......
 03a0 ab0ac0f2 6b697fb8 6b110051 1f010b6b  ....ki..k..Q...k
 03b0 48e4ff54 496928b8 f353c1a8 fd7bc1a8  H..TIi(..S...{..
 03c0 c0035fd6 fd7bbfa9 fd030091 f353bfa9  .._..{.......S..
 03d0 136494d2 d316a0f2 b30ac0f2 736a7ff8  .d..........sj..
 03e0 f36333cb 140080d2 1408a0f2 7f0214eb  .c3.............
 03f0 8be2ff54 08008052 48000034 10000014  ...T...RH..4....
 0400 08008052 29008052 0a6c94d2 ca16a0f2  ...R)..R.l......
 0410 aa0ac0f2 4a697ff8 0ae1ff34 0b7094d2  ....Ji.....4.p..
 0420 cb16a0f2 ab0ac0f2 6b697fb8 6b110051  ........ki..k..Q
 0430 1f010b6b 28e0ff54 496928b8 f353c1a8  ...k(..TIi(..S..
 0440 fd7bc1a8 c0035fd6 fd7bbfa9 fd030091  .{...._..{......
 0450 f353bfa9 136494d2 d316a0f2 b30ac0f2  .S...d..........
 0460 736a7ff8 f36333cb 140080d2 1408a0f2  sj...c3.........
 0470 7f0214eb 6bdeff54 ff4300d1 e01300b9  ....k..T.C......
 0480 e10f00b9 e81340b9 e90f40b9 0a6c94d2  ......@...@..l..
 0490 ca16a0f2 aa0ac0f2 4a697ff8 eadcff34  ........Ji.....4
 04a0 0b7094d2 cb16a0f2 ab0ac0f2 6b697fb8  .p..........ki..
 04b0 6b110051 1f010b6b 08dcff54 496928b8  k..Q...k...TIi(.
 04c0 ff430091 f353c1a8 fd7bc1a8 c0035fd6  .C...S...{...._.

Disassembly of section .text:

0000000000000000 <trap_handler>:
   0:	d2801fe0 	mov	x0, #0xff                  	// #255
   4:	14000011 	b	48 <trap_handler+0x48>
   8:	d2800020 	mov	x0, #0x1                   	// #1
   c:	1400000f 	b	48 <trap_handler+0x48>
  10:	d28000a0 	mov	x0, #0x5                   	// #5
  14:	1400000d 	b	48 <trap_handler+0x48>
  18:	d28000c0 	mov	x0, #0x6                   	// #6
  1c:	1400000b 	b	48 <trap_handler+0x48>
  20:	d2800060 	mov	x0, #0x3                   	// #3
  24:	14000009 	b	48 <trap_handler+0x48>
  28:	d2800080 	mov	x0, #0x4                   	// #4
  2c:	14000007 	b	48 <trap_handler+0x48>
  30:	d2800120 	mov	x0, #0x9                   	// #9
  34:	14000005 	b	48 <trap_handler+0x48>
  38:	d2800040 	mov	x0, #0x2                   	// #2
  3c:	14000003 	b	48 <trap_handler+0x48>
  40:	d2800100 	mov	x0, #0x8                   	// #8
  44:	14000001 	b	48 <trap_handler+0x48>
  48:	d2914b09 	mov	x9, #0x8a58                	// #35416
  4c:	f2a00a09 	movk	x9, #0x50, lsl #16
  50:	f2c00aa9 	movk	x9, #0x55, lsl #32
  54:	f2e00009 	movk	x9, #0x0, lsl #48
  58:	d61f0120 	br	x9

000000000000005c <as-block-value>:
  5c:	a9bf7bfd 	stp	x29, x30, [sp, #-16]!
  60:	910003fd 	mov	x29, sp
  64:	a9bf53f3 	stp	x19, x20, [sp, #-16]!
  68:	d2946413 	mov	x19, #0xa320                	// #41760
  6c:	f2a016d3 	movk	x19, #0xb6, lsl #16
  70:	f2c00ab3 	movk	x19, #0x55, lsl #32
  74:	f87f6a73 	ldr	x19, [x19, xzr]
  78:	cb3363f3 	sub	x19, sp, x19
  7c:	d2800014 	mov	x20, #0x0                   	// #0
  80:	f2a00814 	movk	x20, #0x40, lsl #16
  84:	eb14027f 	cmp	x19, x20
  88:	54fffdcb 	b.lt	40 <trap_handler+0x40>  // b.tstop
  8c:	52800008 	mov	w8, #0x0                   	// #0
  90:	52800029 	mov	w9, #0x1                   	// #1
  94:	d2946c0a 	mov	x10, #0xa360                	// #41824
  98:	f2a016ca 	movk	x10, #0xb6, lsl #16
  9c:	f2c00aaa 	movk	x10, #0x55, lsl #32
  a0:	f87f694a 	ldr	x10, [x10, xzr]
  a4:	34fffcaa 	cbz	w10, 38 <trap_handler+0x38>
  a8:	d294700b 	mov	x11, #0xa380                	// #41856
  ac:	f2a016cb 	movk	x11, #0xb6, lsl #16
  b0:	f2c00aab 	movk	x11, #0x55, lsl #32
  b4:	b87f696b 	ldr	w11, [x11, xzr]
  b8:	5100116b 	sub	w11, w11, #0x4
  bc:	6b0b011f 	cmp	w8, w11
  c0:	54fffbc8 	b.hi	38 <trap_handler+0x38>  // b.pmore
  c4:	b8286949 	str	w9, [x10, x8]
  c8:	a8c153f3 	ldp	x19, x20, [sp], #16
  cc:	a8c17bfd 	ldp	x29, x30, [sp], #16
  d0:	d65f03c0 	ret

00000000000000d4 <as-loop-value>:
  d4:	a9bf7bfd 	stp	x29, x30, [sp, #-16]!
  d8:	910003fd 	mov	x29, sp
  dc:	a9bf53f3 	stp	x19, x20, [sp, #-16]!
  e0:	d2946413 	mov	x19, #0xa320                	// #41760
  e4:	f2a016d3 	movk	x19, #0xb6, lsl #16
  e8:	f2c00ab3 	movk	x19, #0x55, lsl #32
  ec:	f87f6a73 	ldr	x19, [x19, xzr]
  f0:	cb3363f3 	sub	x19, sp, x19
  f4:	d2800014 	mov	x20, #0x0                   	// #0
  f8:	f2a00814 	movk	x20, #0x40, lsl #16
  fc:	eb14027f 	cmp	x19, x20
 100:	54fffa0b 	b.lt	40 <trap_handler+0x40>  // b.tstop
 104:	52800008 	mov	w8, #0x0                   	// #0
 108:	52800029 	mov	w9, #0x1                   	// #1
 10c:	d2946c0a 	mov	x10, #0xa360                	// #41824
 110:	f2a016ca 	movk	x10, #0xb6, lsl #16
 114:	f2c00aaa 	movk	x10, #0x55, lsl #32
 118:	f87f694a 	ldr	x10, [x10, xzr]
 11c:	34fff8ea 	cbz	w10, 38 <trap_handler+0x38>
 120:	d294700b 	mov	x11, #0xa380                	// #41856
 124:	f2a016cb 	movk	x11, #0xb6, lsl #16
 128:	f2c00aab 	movk	x11, #0x55, lsl #32
 12c:	b87f696b 	ldr	w11, [x11, xzr]
 130:	5100116b 	sub	w11, w11, #0x4
 134:	6b0b011f 	cmp	w8, w11
 138:	54fff808 	b.hi	38 <trap_handler+0x38>  // b.pmore
 13c:	b8286949 	str	w9, [x10, x8]
 140:	a8c153f3 	ldp	x19, x20, [sp], #16
 144:	a8c17bfd 	ldp	x29, x30, [sp], #16
 148:	d65f03c0 	ret

000000000000014c <as-br-value>:
 14c:	a9bf7bfd 	stp	x29, x30, [sp, #-16]!
 150:	910003fd 	mov	x29, sp
 154:	a9bf53f3 	stp	x19, x20, [sp, #-16]!
 158:	d2946413 	mov	x19, #0xa320                	// #41760
 15c:	f2a016d3 	movk	x19, #0xb6, lsl #16
 160:	f2c00ab3 	movk	x19, #0x55, lsl #32
 164:	f87f6a73 	ldr	x19, [x19, xzr]
 168:	cb3363f3 	sub	x19, sp, x19
 16c:	d2800014 	mov	x20, #0x0                   	// #0
 170:	f2a00814 	movk	x20, #0x40, lsl #16
 174:	eb14027f 	cmp	x19, x20
 178:	54fff64b 	b.lt	40 <trap_handler+0x40>  // b.tstop
 17c:	52800008 	mov	w8, #0x0                   	// #0
 180:	52800029 	mov	w9, #0x1                   	// #1
 184:	d2946c0a 	mov	x10, #0xa360                	// #41824
 188:	f2a016ca 	movk	x10, #0xb6, lsl #16
 18c:	f2c00aaa 	movk	x10, #0x55, lsl #32
 190:	f87f694a 	ldr	x10, [x10, xzr]
 194:	34fff52a 	cbz	w10, 38 <trap_handler+0x38>
 198:	d294700b 	mov	x11, #0xa380                	// #41856
 19c:	f2a016cb 	movk	x11, #0xb6, lsl #16
 1a0:	f2c00aab 	movk	x11, #0x55, lsl #32
 1a4:	b87f696b 	ldr	w11, [x11, xzr]
 1a8:	5100116b 	sub	w11, w11, #0x4
 1ac:	6b0b011f 	cmp	w8, w11
 1b0:	54fff448 	b.hi	38 <trap_handler+0x38>  // b.pmore
 1b4:	b8286949 	str	w9, [x10, x8]
 1b8:	b400003f 	cbz	xzr, 1bc <as-br-value+0x70>
 1bc:	a8c153f3 	ldp	x19, x20, [sp], #16
 1c0:	a8c17bfd 	ldp	x29, x30, [sp], #16
 1c4:	d65f03c0 	ret

00000000000001c8 <as-br_if-value>:
 1c8:	a9bf7bfd 	stp	x29, x30, [sp, #-16]!
 1cc:	910003fd 	mov	x29, sp
 1d0:	a9bf53f3 	stp	x19, x20, [sp, #-16]!
 1d4:	d2946413 	mov	x19, #0xa320                	// #41760
 1d8:	f2a016d3 	movk	x19, #0xb6, lsl #16
 1dc:	f2c00ab3 	movk	x19, #0x55, lsl #32
 1e0:	f87f6a73 	ldr	x19, [x19, xzr]
 1e4:	cb3363f3 	sub	x19, sp, x19
 1e8:	d2800014 	mov	x20, #0x0                   	// #0
 1ec:	f2a00814 	movk	x20, #0x40, lsl #16
 1f0:	eb14027f 	cmp	x19, x20
 1f4:	54fff26b 	b.lt	40 <trap_handler+0x40>  // b.tstop
 1f8:	52800008 	mov	w8, #0x0                   	// #0
 1fc:	52800029 	mov	w9, #0x1                   	// #1
 200:	d2946c0a 	mov	x10, #0xa360                	// #41824
 204:	f2a016ca 	movk	x10, #0xb6, lsl #16
 208:	f2c00aaa 	movk	x10, #0x55, lsl #32
 20c:	f87f694a 	ldr	x10, [x10, xzr]
 210:	34fff14a 	cbz	w10, 38 <trap_handler+0x38>
 214:	d294700b 	mov	x11, #0xa380                	// #41856
 218:	f2a016cb 	movk	x11, #0xb6, lsl #16
 21c:	f2c00aab 	movk	x11, #0x55, lsl #32
 220:	b87f696b 	ldr	w11, [x11, xzr]
 224:	5100116b 	sub	w11, w11, #0x4
 228:	6b0b011f 	cmp	w8, w11
 22c:	54fff068 	b.hi	38 <trap_handler+0x38>  // b.pmore
 230:	b8286949 	str	w9, [x10, x8]
 234:	52800028 	mov	w8, #0x1                   	// #1
 238:	35000028 	cbnz	w8, 23c <as-br_if-value+0x74>
 23c:	a8c153f3 	ldp	x19, x20, [sp], #16
 240:	a8c17bfd 	ldp	x29, x30, [sp], #16
 244:	d65f03c0 	ret

0000000000000248 <as-br_if-value-cond>:
 248:	a9bf7bfd 	stp	x29, x30, [sp, #-16]!
 24c:	910003fd 	mov	x29, sp
 250:	a9bf53f3 	stp	x19, x20, [sp, #-16]!
 254:	d2946413 	mov	x19, #0xa320                	// #41760
 258:	f2a016d3 	movk	x19, #0xb6, lsl #16
 25c:	f2c00ab3 	movk	x19, #0x55, lsl #32
 260:	f87f6a73 	ldr	x19, [x19, xzr]
 264:	cb3363f3 	sub	x19, sp, x19
 268:	d2800014 	mov	x20, #0x0                   	// #0
 26c:	f2a00814 	movk	x20, #0x40, lsl #16
 270:	eb14027f 	cmp	x19, x20
 274:	54ffee6b 	b.lt	40 <trap_handler+0x40>  // b.tstop
 278:	528000c8 	mov	w8, #0x6                   	// #6
 27c:	52800009 	mov	w9, #0x0                   	// #0
 280:	5280002a 	mov	w10, #0x1                   	// #1
 284:	d2946c0b 	mov	x11, #0xa360                	// #41824
 288:	f2a016cb 	movk	x11, #0xb6, lsl #16
 28c:	f2c00aab 	movk	x11, #0x55, lsl #32
 290:	f87f696b 	ldr	x11, [x11, xzr]
 294:	34ffed2b 	cbz	w11, 38 <trap_handler+0x38>
 298:	d294700c 	mov	x12, #0xa380                	// #41856
 29c:	f2a016cc 	movk	x12, #0xb6, lsl #16
 2a0:	f2c00aac 	movk	x12, #0x55, lsl #32
 2a4:	b87f698c 	ldr	w12, [x12, xzr]
 2a8:	5100118c 	sub	w12, w12, #0x4
 2ac:	6b0c013f 	cmp	w9, w12
 2b0:	54ffec48 	b.hi	38 <trap_handler+0x38>  // b.pmore
 2b4:	b829696a 	str	w10, [x11, x9]
 2b8:	35000028 	cbnz	w8, 2bc <as-br_if-value-cond+0x74>
 2bc:	a8c153f3 	ldp	x19, x20, [sp], #16
 2c0:	a8c17bfd 	ldp	x29, x30, [sp], #16
 2c4:	d65f03c0 	ret

00000000000002c8 <as-return-value>:
 2c8:	a9bf7bfd 	stp	x29, x30, [sp, #-16]!
 2cc:	910003fd 	mov	x29, sp
 2d0:	a9bf53f3 	stp	x19, x20, [sp, #-16]!
 2d4:	d2946413 	mov	x19, #0xa320                	// #41760
 2d8:	f2a016d3 	movk	x19, #0xb6, lsl #16
 2dc:	f2c00ab3 	movk	x19, #0x55, lsl #32
 2e0:	f87f6a73 	ldr	x19, [x19, xzr]
 2e4:	cb3363f3 	sub	x19, sp, x19
 2e8:	d2800014 	mov	x20, #0x0                   	// #0
 2ec:	f2a00814 	movk	x20, #0x40, lsl #16
 2f0:	eb14027f 	cmp	x19, x20
 2f4:	54ffea6b 	b.lt	40 <trap_handler+0x40>  // b.tstop
 2f8:	52800008 	mov	w8, #0x0                   	// #0
 2fc:	52800029 	mov	w9, #0x1                   	// #1
 300:	d2946c0a 	mov	x10, #0xa360                	// #41824
 304:	f2a016ca 	movk	x10, #0xb6, lsl #16
 308:	f2c00aaa 	movk	x10, #0x55, lsl #32
 30c:	f87f694a 	ldr	x10, [x10, xzr]
 310:	34ffe94a 	cbz	w10, 38 <trap_handler+0x38>
 314:	d294700b 	mov	x11, #0xa380                	// #41856
 318:	f2a016cb 	movk	x11, #0xb6, lsl #16
 31c:	f2c00aab 	movk	x11, #0x55, lsl #32
 320:	b87f696b 	ldr	w11, [x11, xzr]
 324:	5100116b 	sub	w11, w11, #0x4
 328:	6b0b011f 	cmp	w8, w11
 32c:	54ffe868 	b.hi	38 <trap_handler+0x38>  // b.pmore
 330:	b8286949 	str	w9, [x10, x8]
 334:	b400003f 	cbz	xzr, 338 <as-return-value+0x70>
 338:	a8c153f3 	ldp	x19, x20, [sp], #16
 33c:	a8c17bfd 	ldp	x29, x30, [sp], #16
 340:	d65f03c0 	ret

0000000000000344 <as-if-then>:
 344:	a9bf7bfd 	stp	x29, x30, [sp, #-16]!
 348:	910003fd 	mov	x29, sp
 34c:	a9bf53f3 	stp	x19, x20, [sp, #-16]!
 350:	d2946413 	mov	x19, #0xa320                	// #41760
 354:	f2a016d3 	movk	x19, #0xb6, lsl #16
 358:	f2c00ab3 	movk	x19, #0x55, lsl #32
 35c:	f87f6a73 	ldr	x19, [x19, xzr]
 360:	cb3363f3 	sub	x19, sp, x19
 364:	d2800014 	mov	x20, #0x0                   	// #0
 368:	f2a00814 	movk	x20, #0x40, lsl #16
 36c:	eb14027f 	cmp	x19, x20
 370:	54ffe68b 	b.lt	40 <trap_handler+0x40>  // b.tstop
 374:	52800028 	mov	w8, #0x1                   	// #1
 378:	34000208 	cbz	w8, 3b8 <as-if-then+0x74>
 37c:	52800008 	mov	w8, #0x0                   	// #0
 380:	52800029 	mov	w9, #0x1                   	// #1
 384:	d2946c0a 	mov	x10, #0xa360                	// #41824
 388:	f2a016ca 	movk	x10, #0xb6, lsl #16
 38c:	f2c00aaa 	movk	x10, #0x55, lsl #32
 390:	f87f694a 	ldr	x10, [x10, xzr]
 394:	34ffe52a 	cbz	w10, 38 <trap_handler+0x38>
 398:	d294700b 	mov	x11, #0xa380                	// #41856
 39c:	f2a016cb 	movk	x11, #0xb6, lsl #16
 3a0:	f2c00aab 	movk	x11, #0x55, lsl #32
 3a4:	b87f696b 	ldr	w11, [x11, xzr]
 3a8:	5100116b 	sub	w11, w11, #0x4
 3ac:	6b0b011f 	cmp	w8, w11
 3b0:	54ffe448 	b.hi	38 <trap_handler+0x38>  // b.pmore
 3b4:	b8286949 	str	w9, [x10, x8]
 3b8:	a8c153f3 	ldp	x19, x20, [sp], #16
 3bc:	a8c17bfd 	ldp	x29, x30, [sp], #16
 3c0:	d65f03c0 	ret

00000000000003c4 <as-if-else>:
 3c4:	a9bf7bfd 	stp	x29, x30, [sp, #-16]!
 3c8:	910003fd 	mov	x29, sp
 3cc:	a9bf53f3 	stp	x19, x20, [sp, #-16]!
 3d0:	d2946413 	mov	x19, #0xa320                	// #41760
 3d4:	f2a016d3 	movk	x19, #0xb6, lsl #16
 3d8:	f2c00ab3 	movk	x19, #0x55, lsl #32
 3dc:	f87f6a73 	ldr	x19, [x19, xzr]
 3e0:	cb3363f3 	sub	x19, sp, x19
 3e4:	d2800014 	mov	x20, #0x0                   	// #0
 3e8:	f2a00814 	movk	x20, #0x40, lsl #16
 3ec:	eb14027f 	cmp	x19, x20
 3f0:	54ffe28b 	b.lt	40 <trap_handler+0x40>  // b.tstop
 3f4:	52800008 	mov	w8, #0x0                   	// #0
 3f8:	34000048 	cbz	w8, 400 <as-if-else+0x3c>
 3fc:	14000010 	b	43c <as-if-else+0x78>
 400:	52800008 	mov	w8, #0x0                   	// #0
 404:	52800029 	mov	w9, #0x1                   	// #1
 408:	d2946c0a 	mov	x10, #0xa360                	// #41824
 40c:	f2a016ca 	movk	x10, #0xb6, lsl #16
 410:	f2c00aaa 	movk	x10, #0x55, lsl #32
 414:	f87f694a 	ldr	x10, [x10, xzr]
 418:	34ffe10a 	cbz	w10, 38 <trap_handler+0x38>
 41c:	d294700b 	mov	x11, #0xa380                	// #41856
 420:	f2a016cb 	movk	x11, #0xb6, lsl #16
 424:	f2c00aab 	movk	x11, #0x55, lsl #32
 428:	b87f696b 	ldr	w11, [x11, xzr]
 42c:	5100116b 	sub	w11, w11, #0x4
 430:	6b0b011f 	cmp	w8, w11
 434:	54ffe028 	b.hi	38 <trap_handler+0x38>  // b.pmore
 438:	b8286949 	str	w9, [x10, x8]
 43c:	a8c153f3 	ldp	x19, x20, [sp], #16
 440:	a8c17bfd 	ldp	x29, x30, [sp], #16
 444:	d65f03c0 	ret

0000000000000448 <address-as-param>:
 448:	a9bf7bfd 	stp	x29, x30, [sp, #-16]!
 44c:	910003fd 	mov	x29, sp
 450:	a9bf53f3 	stp	x19, x20, [sp, #-16]!
 454:	d2946413 	mov	x19, #0xa320                	// #41760
 458:	f2a016d3 	movk	x19, #0xb6, lsl #16
 45c:	f2c00ab3 	movk	x19, #0x55, lsl #32
 460:	f87f6a73 	ldr	x19, [x19, xzr]
 464:	cb3363f3 	sub	x19, sp, x19
 468:	d2800014 	mov	x20, #0x0                   	// #0
 46c:	f2a00814 	movk	x20, #0x40, lsl #16
 470:	eb14027f 	cmp	x19, x20
 474:	54ffde6b 	b.lt	40 <trap_handler+0x40>  // b.tstop
 478:	d10043ff 	sub	sp, sp, #0x10
 47c:	b90013e0 	str	w0, [sp, #16]
 480:	b9000fe1 	str	w1, [sp, #12]
 484:	b94013e8 	ldr	w8, [sp, #16]
 488:	b9400fe9 	ldr	w9, [sp, #12]
 48c:	d2946c0a 	mov	x10, #0xa360                	// #41824
 490:	f2a016ca 	movk	x10, #0xb6, lsl #16
 494:	f2c00aaa 	movk	x10, #0x55, lsl #32
 498:	f87f694a 	ldr	x10, [x10, xzr]
 49c:	34ffdcea 	cbz	w10, 38 <trap_handler+0x38>
 4a0:	d294700b 	mov	x11, #0xa380                	// #41856
 4a4:	f2a016cb 	movk	x11, #0xb6, lsl #16
 4a8:	f2c00aab 	movk	x11, #0x55, lsl #32
 4ac:	b87f696b 	ldr	w11, [x11, xzr]
 4b0:	5100116b 	sub	w11, w11, #0x4
 4b4:	6b0b011f 	cmp	w8, w11
 4b8:	54ffdc08 	b.hi	38 <trap_handler+0x38>  // b.pmore
 4bc:	b8286949 	str	w9, [x10, x8]
 4c0:	910043ff 	add	sp, sp, #0x10
 4c4:	a8c153f3 	ldp	x19, x20, [sp], #16
 4c8:	a8c17bfd 	ldp	x29, x30, [sp], #16
 4cc:	d65f03c0 	ret
