
./tests/machinecode/myPrint.o:     file format elf64-littleaarch64

SYMBOL TABLE:
0000000000000000 g     F .text	000000000000005c trap_handler
0000000000000000 g     F .text	0000000000000000 func_0
000000000000005c g     F .text	0000000000000c64 func_1
0000000000000cc0 g     F .text	000000000000003c func_2
0000000000000cfc g     F .text	000000000000009c func_3
0000000000000d98 g     F .text	000000000000009c _start
0000000000000000 g     O .rodata	0000000000000008 globals


Contents of section .text:
 0000 e01f80d2 11000014 200080d2 0f000014  ........ .......
 0010 a00080d2 0d000014 c00080d2 0b000014  ................
 0020 600080d2 09000014 800080d2 07000014  `...............
 0030 200180d2 05000014 400080d2 03000014   .......@.......
 0040 000180d2 01000014 094b91d2 090aa0f2  .........K......
 0050 a90ac0f2 0900e0f2 20011fd6 fd7bbfa9  ........ ....{..
 0060 fd030091 f353bfa9 136494d2 d316a0f2  .....S...d......
 0070 b30ac0f2 736a7ff8 f36333cb 140080d2  ....sj...c3.....
 0080 1408a0f2 7f0214eb cbfdff54 ff4300d1  ...........T.C..
 0090 ff1300b9 ff0f00b9 086294d2 c816a0f2  .........b......
 00a0 a80ac0f2 08697ff8 08010091 08697ff8  .....i.......i..
 00b0 091c8052 0801094b e81300b9 e81340b9  ...R...K......@.
 00c0 096294d2 c916a0f2 a90ac0f2 29697ff8  .b..........)i..
 00d0 29010091 28693ff8 e81340b9 89028052  )...(i?...@....R
 00e0 0a6c94d2 ca16a0f2 aa0ac0f2 4a697ff8  .l..........Ji..
 00f0 4afaff34 0b7094d2 cb16a0f2 ab0ac0f2  J..4.p..........
 0100 6b697fb8 6b110051 1f010b6b 68f9ff54  ki..k..Q...kh..T
 0110 496928b8 68968052 e91340b9 e103092a  Ii(.h..R..@....*
 0120 e003082a ff0301d1 e82703a9 ea2f02a9  ...*.....'.../..
 0130 ec3701a9 ee3f00a9 88bb87d2 280ba0f2  .7...?......(...
 0140 a80ac0f2 0800e0f2 00013fd6 e82743a9  ..........?..'C.
 0150 ea2f42a9 ec3741a9 ee3f40a9 ff030191  ./B..7A..?@.....
 0160 e80300aa e81340b9 89fd9f52 e9ffbf72  ......@....R...r
 0170 0a6c94d2 ca16a0f2 aa0ac0f2 4a697ff8  .l..........Ji..
 0180 caf5ff34 08410091 0b7094d2 cb16a0f2  ...4.A...p......
 0190 ab0ac0f2 6b697fb8 6b110051 1f010b6b  ....ki..k..Q...k
 01a0 c8f4ff54 496928b8 a8918052 e91340b9  ...TIi(....R..@.
 01b0 0a028052 29010a0b e103092a e003082a  ...R)......*...*
 01c0 ff0301d1 e82703a9 ea2f02a9 ec3701a9  .....'.../...7..
 01d0 ee3f00a9 88bb87d2 280ba0f2 a80ac0f2  .?......(.......
 01e0 0800e0f2 00013fd6 e82743a9 ea2f42a9  ......?..'C../B.
 01f0 ec3741a9 ee3f40a9 ff030191 e80300aa  .7A..?@.........
 0200 e81340b9 89028052 0a6c94d2 ca16a0f2  ..@....R.l......
 0210 aa0ac0f2 4a697ff8 0af1ff34 08810091  ....Ji.....4....
 0220 0b7094d2 cb16a0f2 ab0ac0f2 6b697fb8  .p..........ki..
 0230 6b110051 1f010b6b 08f0ff54 496928b8  k..Q...k...TIi(.
 0240 68858052 e91340b9 0a048052 29010a0b  h..R..@....R)...
 0250 e103092a e003082a ff0301d1 e82703a9  ...*...*.....'..
 0260 ea2f02a9 ec3701a9 ee3f00a9 88bb87d2  ./...7...?......
 0270 280ba0f2 a80ac0f2 0800e0f2 00013fd6  (.............?.
 0280 e82743a9 ea2f42a9 ec3741a9 ee3f40a9  .'C../B..7A..?@.
 0290 ff030191 e80300aa e81340b9 090b8052  ..........@....R
 02a0 0a6c94d2 ca16a0f2 aa0ac0f2 4a697ff8  .l..........Ji..
 02b0 4aecff34 08c10091 0b7094d2 cb16a0f2  J..4.....p......
 02c0 ab0ac0f2 6b697fb8 6b110051 1f010b6b  ....ki..k..Q...k
 02d0 48ebff54 496928b8 48838052 e91340b9  H..TIi(.H..R..@.
 02e0 0a068052 29010a0b e103092a e003082a  ...R)......*...*
 02f0 ff0301d1 e82703a9 ea2f02a9 ec3701a9  .....'.../...7..
 0300 ee3f00a9 88bb87d2 280ba0f2 a80ac0f2  .?......(.......
 0310 0800e0f2 00013fd6 e82743a9 ea2f42a9  ......?..'C../B.
 0320 ec3741a9 ee3f40a9 ff030191 e80300aa  .7A..?@.........
 0330 e81340b9 690c8052 0a6c94d2 ca16a0f2  ..@.i..R.l......
 0340 aa0ac0f2 4a697ff8 8ae7ff34 08310191  ....Ji.....4.1..
 0350 0b7094d2 cb16a0f2 ab0ac0f2 6b697fb8  .p..........ki..
 0360 6b110051 1f010b6b 88e6ff54 496928b8  k..Q...k...TIi(.
 0370 e81340b9 490b8052 0a6c94d2 ca16a0f2  ..@.I..R.l......
 0380 aa0ac0f2 4a697ff8 8ae5ff34 08210191  ....Ji.....4.!..
 0390 0b7094d2 cb16a0f2 ab0ac0f2 6b697fb8  .p..........ki..
 03a0 6b110051 1f010b6b 88e4ff54 496928b8  k..Q...k...TIi(.
 03b0 e81340b9 290b8052 0a6c94d2 ca16a0f2  ..@.)..R.l......
 03c0 aa0ac0f2 4a697ff8 8ae3ff34 08110191  ....Ji.....4....
 03d0 0b7094d2 cb16a0f2 ab0ac0f2 6b697fb8  .p..........ki..
 03e0 6b110051 1f010b6b 88e2ff54 496928b8  k..Q...k...TIi(.
 03f0 e81340b9 090b8052 0a6c94d2 ca16a0f2  ..@....R.l......
 0400 aa0ac0f2 4a697ff8 8ae1ff34 08010191  ....Ji.....4....
 0410 0b7094d2 cb16a0f2 ab0ac0f2 6b697fb8  .p..........ki..
 0420 6b110051 1f010b6b 88e0ff54 496928b8  k..Q...k...TIi(.
 0430 68878052 e91340b9 0a088052 29010a0b  h..R..@....R)...
 0440 e103092a e003082a ff0301d1 e82703a9  ...*...*.....'..
 0450 ea2f02a9 ec3701a9 ee3f00a9 88bb87d2  ./...7...?......
 0460 280ba0f2 a80ac0f2 0800e0f2 00013fd6  (.............?.
 0470 e82743a9 ea2f42a9 ec3741a9 ee3f40a9  .'C../B..7A..?@.
 0480 ff030191 e80300aa e81340b9 090c8052  ..........@....R
 0490 0801090b 090b80d2 0a6c94d2 ca16a0f2  .........l......
 04a0 aa0ac0f2 4a697ff8 8adcffb4 0b7094d2  ....Ji.......p..
 04b0 cb16a0f2 ab0ac0f2 6b697fb8 6b210051  ........ki..k!.Q
 04c0 1f010b6b a8dbff54 496928f8 e81340b9  ...k...TIi(...@.
 04d0 89098052 0a6c94d2 ca16a0f2 aa0ac0f2  ...R.l..........
 04e0 4a697ff8 aadaff34 08610191 0b7094d2  Ji.....4.a...p..
 04f0 cb16a0f2 ab0ac0f2 6b697fb8 6b110051  ........ki..k..Q
 0500 1f010b6b a8d9ff54 496928b8 e81340b9  ...k...TIi(...@.
 0510 69098052 0a6c94d2 ca16a0f2 aa0ac0f2  i..R.l..........
 0520 4a697ff8 aad8ff34 08510191 0b7094d2  Ji.....4.Q...p..
 0530 cb16a0f2 ab0ac0f2 6b697fb8 6b110051  ........ki..k..Q
 0540 1f010b6b a8d7ff54 496928b8 e81340b9  ...k...TIi(...@.
 0550 49098052 0a6c94d2 ca16a0f2 aa0ac0f2  I..R.l..........
 0560 4a697ff8 aad6ff34 08410191 0b7094d2  Ji.....4.A...p..
 0570 cb16a0f2 ab0ac0f2 6b697fb8 6b110051  ........ki..k..Q
 0580 1f010b6b a8d5ff54 496928b8 88808052  ...k...TIi(....R
 0590 e91340b9 0a0a8052 29010a0b e103092a  ..@....R)......*
 05a0 e003082a ff0301d1 e82703a9 ea2f02a9  ...*.....'.../..
 05b0 ec3701a9 ee3f00a9 88bb87d2 280ba0f2  .7...?......(...
 05c0 a80ac0f2 0800e0f2 00013fd6 e82743a9  ..........?..'C.
 05d0 ea2f42a9 ec3741a9 ee3f40a9 ff030191  ./B..7A..?@.....
 05e0 e80300aa e81340b9 09f59f52 e9ffbf72  ......@....R...r
 05f0 0a6c94d2 ca16a0f2 aa0ac0f2 4a697ff8  .l..........Ji..
 0600 cad1ff34 08f10191 0b7094d2 cb16a0f2  ...4.....p......
 0610 ab0ac0f2 6b697fb8 6b110051 1f010b6b  ....ki..k..Q...k
 0620 c8d0ff54 496928b8 e81340b9 490b8052  ...TIi(...@.I..R
 0630 0a6c94d2 ca16a0f2 aa0ac0f2 4a697ff8  .l..........Ji..
 0640 cacfff34 08e10191 0b7094d2 cb16a0f2  ...4.....p......
 0650 ab0ac0f2 6b697fb8 6b110051 1f010b6b  ....ki..k..Q...k
 0660 c8ceff54 496928b8 e81340b9 290b8052  ...TIi(...@.)..R
 0670 0a6c94d2 ca16a0f2 aa0ac0f2 4a697ff8  .l..........Ji..
 0680 cacdff34 08d10191 0b7094d2 cb16a0f2  ...4.....p......
 0690 ab0ac0f2 6b697fb8 6b110051 1f010b6b  ....ki..k..Q...k
 06a0 c8ccff54 496928b8 e81340b9 090b8052  ...TIi(...@....R
 06b0 0a6c94d2 ca16a0f2 aa0ac0f2 4a697ff8  .l..........Ji..
 06c0 cacbff34 08c10191 0b7094d2 cb16a0f2  ...4.....p......
 06d0 ab0ac0f2 6b697fb8 6b110051 1f010b6b  ....ki..k..Q...k
 06e0 c8caff54 496928b8 88988052 e91340b9  ...TIi(....R..@.
 06f0 0a0e8052 29010a0b e103092a e003082a  ...R)......*...*
 0700 ff0301d1 e82703a9 ea2f02a9 ec3701a9  .....'.../...7..
 0710 ee3f00a9 88bb87d2 280ba0f2 a80ac0f2  .?......(.......
 0720 0800e0f2 00013fd6 e82743a9 ea2f42a9  ......?..'C../B.
 0730 ec3741a9 ee3f40a9 ff030191 e80300aa  .7A..?@.........
 0740 e81340b9 09128052 0801090b 09809fd2  ..@....R........
 0750 e9ffbff2 e9ffdff2 e9fffff2 0a6c94d2  .............l..
 0760 ca16a0f2 aa0ac0f2 4a697ff8 6ac6ffb4  ........Ji..j...
 0770 0b7094d2 cb16a0f2 ab0ac0f2 6b697fb8  .p..........ki..
 0780 6b210051 1f010b6b 88c5ff54 496928f8  k!.Q...k...TIi(.
 0790 e81340b9 490b8052 0a6c94d2 ca16a0f2  ..@.I..R.l......
 07a0 aa0ac0f2 4a697ff8 8ac4ff34 08210291  ....Ji.....4.!..
 07b0 0b7094d2 cb16a0f2 ab0ac0f2 6b697fb8  .p..........ki..
 07c0 6b110051 1f010b6b 88c3ff54 496928b8  k..Q...k...TIi(.
 07d0 e81340b9 290b8052 0a6c94d2 ca16a0f2  ..@.)..R.l......
 07e0 aa0ac0f2 4a697ff8 8ac2ff34 08110291  ....Ji.....4....
 07f0 0b7094d2 cb16a0f2 ab0ac0f2 6b697fb8  .p..........ki..
 0800 6b110051 1f010b6b 88c1ff54 496928b8  k..Q...k...TIi(.
 0810 e81340b9 090b8052 0a6c94d2 ca16a0f2  ..@....R.l......
 0820 aa0ac0f2 4a697ff8 8ac0ff34 08010291  ....Ji.....4....
 0830 0b7094d2 cb16a0f2 ab0ac0f2 6b697fb8  .p..........ki..
 0840 6b110051 1f010b6b 88bfff54 496928b8  k..Q...k...TIi(.
 0850 a8938052 e91340b9 0a108052 29010a0b  ...R..@....R)...
 0860 e103092a e003082a ff0301d1 e82703a9  ...*...*.....'..
 0870 ea2f02a9 ec3701a9 ee3f00a9 88bb87d2  ./...7...?......
 0880 280ba0f2 a80ac0f2 0800e0f2 00013fd6  (.............?.
 0890 e82743a9 ea2f42a9 ec3741a9 ee3f40a9  .'C../B..7A..?@.
 08a0 ff030191 e80300aa e81340b9 09808052  ..........@....R
 08b0 0a6c94d2 ca16a0f2 aa0ac0f2 4a697ff8  .l..........Ji..
 08c0 cabbff34 08810291 0b7094d2 cb16a0f2  ...4.....p......
 08d0 ab0ac0f2 6b697fb8 6b110051 1f010b6b  ....ki..k..Q...k
 08e0 c8baff54 496928b8 088d8052 e91340b9  ...TIi(....R..@.
 08f0 0a148052 29010a0b e103092a e003082a  ...R)......*...*
 0900 ff0301d1 e82703a9 ea2f02a9 ec3701a9  .....'.../...7..
 0910 ee3f00a9 88bb87d2 280ba0f2 a80ac0f2  .?......(.......
 0920 0800e0f2 00013fd6 e82743a9 ea2f42a9  ......?..'C../B.
 0930 ec3741a9 ee3f40a9 ff030191 e80300aa  .7A..?@.........
 0940 e81340b9 09808052 0a6c94d2 ca16a0f2  ..@....R.l......
 0950 aa0ac0f2 4a697ff8 0ab7ff34 08d10291  ....Ji.....4....
 0960 0b7094d2 cb16a0f2 ab0ac0f2 6b697fb8  .p..........ki..
 0970 6b110051 1f010b6b 08b6ff54 496928b8  k..Q...k...TIi(.
 0980 e81340b9 490a8052 0a6c94d2 ca16a0f2  ..@.I..R.l......
 0990 aa0ac0f2 4a697ff8 0ab5ff34 08c10291  ....Ji.....4....
 09a0 0b7094d2 cb16a0f2 ab0ac0f2 6b697fb8  .p..........ki..
 09b0 6b110051 1f010b6b 08b4ff54 496928b8  k..Q...k...TIi(.
 09c0 e8898052 e91340b9 0a168052 29010a0b  ...R..@....R)...
 09d0 e103092a e003082a ff0301d1 e82703a9  ...*...*.....'..
 09e0 ea2f02a9 ec3701a9 ee3f00a9 88bb87d2  ./...7...?......
 09f0 280ba0f2 a80ac0f2 0800e0f2 00013fd6  (.............?.
 0a00 e82743a9 ea2f42a9 ec3741a9 ee3f40a9  .'C../B..7A..?@.
 0a10 ff030191 e80300aa e81340b9 e9ff9f52  ..........@....R
 0a20 0a6c94d2 ca16a0f2 aa0ac0f2 4a697ff8  .l..........Ji..
 0a30 4ab0ff34 08710391 0b7094d2 cb16a0f2  J..4.q...p......
 0a40 ab0ac0f2 6b697fb8 6b110051 1f010b6b  ....ki..k..Q...k
 0a50 48afff54 496928b8 e81340b9 e91340b9  H..TIi(...@...@.
 0a60 8a1b8052 29010a0b 0a6c94d2 ca16a0f2  ...R)....l......
 0a70 aa0ac0f2 4a697ff8 0aaeff34 08610391  ....Ji.....4.a..
 0a80 0b7094d2 cb16a0f2 ab0ac0f2 6b697fb8  .p..........ki..
 0a90 6b110051 1f010b6b 08adff54 496928b8  k..Q...k...TIi(.
 0aa0 e81340b9 e91340b9 0a6c94d2 ca16a0f2  ..@...@..l......
 0ab0 aa0ac0f2 4a697ff8 0aacffb4 29610391  ....Ji......)a..
 0ac0 0b7094d2 cb16a0f2 ab0ac0f2 6b697fb8  .p..........ki..
 0ad0 6b110051 3f010b6b 08abff54 4a69a9b8  k..Q?..k...TJi..
 0ae0 096c94d2 c916a0f2 a90ac0f2 29697ff8  .l..........)i..
 0af0 49aaff34 08010391 0b7094d2 cb16a0f2  I..4.....p......
 0b00 ab0ac0f2 6b697fb8 6b110051 1f010b6b  ....ki..k..Q...k
 0b10 48a9ff54 2a6928b8 488f8052 e91340b9  H..T*i(.H..R..@.
 0b20 0a188052 29010a0b e103092a e003082a  ...R)......*...*
 0b30 ff0301d1 e82703a9 ea2f02a9 ec3701a9  .....'.../...7..
 0b40 ee3f00a9 88bb87d2 280ba0f2 a80ac0f2  .?......(.......
 0b50 0800e0f2 00013fd6 e82743a9 ea2f42a9  ......?..'C../B.
 0b60 ec3741a9 ee3f40a9 ff030191 e80300aa  .7A..?@.........
 0b70 e81340b9 096c94d2 c916a0f2 a90ac0f2  ..@..l..........
 0b80 29697ff8 a9a5ffb4 08610391 0a7094d2  )i.......a...p..
 0b90 ca16a0f2 aa0ac0f2 4a697fb8 4a110051  ........Ji..J..Q
 0ba0 1f010a6b a8a4ff54 2969a8b8 e90f00b9  ...k...T)i......
 0bb0 e81340b9 490a8052 0a6c94d2 ca16a0f2  ..@.I..R.l......
 0bc0 aa0ac0f2 4a697ff8 8aa3ff34 08510391  ....Ji.....4.Q..
 0bd0 0b7094d2 cb16a0f2 ab0ac0f2 6b697fb8  .p..........ki..
 0be0 6b110051 1f010b6b 88a2ff54 496928b8  k..Q...k...TIi(.
 0bf0 e81340b9 e90f40b9 0a6c94d2 ca16a0f2  ..@...@..l......
 0c00 aa0ac0f2 4a697ff8 8aa1ff34 08410391  ....Ji.....4.A..
 0c10 0b7094d2 cb16a0f2 ab0ac0f2 6b697fb8  .p..........ki..
 0c20 6b110051 1f010b6b 88a0ff54 496928b8  k..Q...k...TIi(.
 0c30 089b8052 e91340b9 0a1a8052 29010a0b  ...R..@....R)...
 0c40 e103092a e003082a ff0301d1 e82703a9  ...*...*.....'..
 0c50 ea2f02a9 ec3701a9 ee3f00a9 88bb87d2  ./...7...?......
 0c60 280ba0f2 a80ac0f2 0800e0f2 00013fd6  (.............?.
 0c70 e82743a9 ea2f42a9 ec3741a9 ee3f40a9  .'C../B..7A..?@.
 0c80 ff030191 e80300aa e81340b9 091c8052  ..........@....R
 0c90 0801090b 096294d2 c916a0f2 a90ac0f2  .....b..........
 0ca0 29697ff8 29010091 28693ff8 3f0000b4  )i..)...(i?.?...
 0cb0 ff430091 f353c1a8 fd7bc1a8 c0035fd6  .C...S...{...._.
 0cc0 fd7bbfa9 fd030091 f353bfa9 136494d2  .{.......S...d..
 0cd0 d316a0f2 b30ac0f2 736a7ff8 f36333cb  ........sj...c3.
 0ce0 140080d2 1408a0f2 7f0214eb ab9aff54  ...............T
 0cf0 f353c1a8 fd7bc1a8 c0035fd6 fd7bbfa9  .S...{...._..{..
 0d00 fd030091 f353bfa9 136494d2 d316a0f2  .....S...d......
 0d10 b30ac0f2 736a7ff8 f36333cb 140080d2  ....sj...c3.....
 0d20 1408a0f2 7f0214eb cb98ff54 ff0301d1  ...........T....
 0d30 e82703a9 ea2f02a9 ec3701a9 ee3f00a9  .'.../...7...?..
 0d40 e0ffff97 e82743a9 ea2f42a9 ec3741a9  .....'C../B..7A.
 0d50 ee3f40a9 ff030191 e80300aa ff0301d1  .?@.............
 0d60 e82703a9 ea2f02a9 ec3701a9 ee3f00a9  .'.../...7...?..
 0d70 d4ffff97 e82743a9 ea2f42a9 ec3741a9  .....'C../B..7A.
 0d80 ee3f40a9 ff030191 e90300aa f353c1a8  .?@..........S..
 0d90 fd7bc1a8 c0035fd6 fd7bbfa9 fd030091  .{...._..{......
 0da0 f353bfa9 136494d2 d316a0f2 b30ac0f2  .S...d..........
 0db0 736a7ff8 f36333cb 140080d2 1408a0f2  sj...c3.........
 0dc0 7f0214eb eb93ff54 ff0301d1 e82703a9  .......T.....'..
 0dd0 ea2f02a9 ec3701a9 ee3f00a9 a0fcff97  ./...7...?......
 0de0 e82743a9 ea2f42a9 ec3741a9 ee3f40a9  .'C../B..7A..?@.
 0df0 ff030191 e80300aa ff0301d1 e82703a9  .............'..
 0e00 ea2f02a9 ec3701a9 ee3f00a9 bcffff97  ./...7...?......
 0e10 e82743a9 ea2f42a9 ec3741a9 ee3f40a9  .'C../B..7A..?@.
 0e20 ff030191 e90300aa f353c1a8 fd7bc1a8  .........S...{..
 0e30 c0035fd6                             .._.            
Contents of section .data:
 0000 f0240000 00000000                    .$......        

Disassembly of section .text:

0000000000000000 <trap_handler>:
   0:	d2801fe0 	mov	x0, #0xff                  	// #255
   4:	14000011 	b	48 <trap_handler+0x48>
   8:	d2800020 	mov	x0, #0x1                   	// #1
   c:	1400000f 	b	48 <trap_handler+0x48>
  10:	d28000a0 	mov	x0, #0x5                   	// #5
  14:	1400000d 	b	48 <trap_handler+0x48>
  18:	d28000c0 	mov	x0, #0x6                   	// #6
  1c:	1400000b 	b	48 <trap_handler+0x48>
  20:	d2800060 	mov	x0, #0x3                   	// #3
  24:	14000009 	b	48 <trap_handler+0x48>
  28:	d2800080 	mov	x0, #0x4                   	// #4
  2c:	14000007 	b	48 <trap_handler+0x48>
  30:	d2800120 	mov	x0, #0x9                   	// #9
  34:	14000005 	b	48 <trap_handler+0x48>
  38:	d2800040 	mov	x0, #0x2                   	// #2
  3c:	14000003 	b	48 <trap_handler+0x48>
  40:	d2800100 	mov	x0, #0x8                   	// #8
  44:	14000001 	b	48 <trap_handler+0x48>
  48:	d2914b09 	mov	x9, #0x8a58                	// #35416
  4c:	f2a00a09 	movk	x9, #0x50, lsl #16
  50:	f2c00aa9 	movk	x9, #0x55, lsl #32
  54:	f2e00009 	movk	x9, #0x0, lsl #48
  58:	d61f0120 	br	x9

000000000000005c <func_1>:
  5c:	a9bf7bfd 	stp	x29, x30, [sp, #-16]!
  60:	910003fd 	mov	x29, sp
  64:	a9bf53f3 	stp	x19, x20, [sp, #-16]!
  68:	d2946413 	mov	x19, #0xa320                	// #41760
  6c:	f2a016d3 	movk	x19, #0xb6, lsl #16
  70:	f2c00ab3 	movk	x19, #0x55, lsl #32
  74:	f87f6a73 	ldr	x19, [x19, xzr]
  78:	cb3363f3 	sub	x19, sp, x19
  7c:	d2800014 	mov	x20, #0x0                   	// #0
  80:	f2a00814 	movk	x20, #0x40, lsl #16
  84:	eb14027f 	cmp	x19, x20
  88:	54fffdcb 	b.lt	40 <trap_handler+0x40>  // b.tstop
  8c:	d10043ff 	sub	sp, sp, #0x10
  90:	b90013ff 	str	wzr, [sp, #16]
  94:	b9000fff 	str	wzr, [sp, #12]
  98:	d2946208 	mov	x8, #0xa310                	// #41744
  9c:	f2a016c8 	movk	x8, #0xb6, lsl #16
  a0:	f2c00aa8 	movk	x8, #0x55, lsl #32
  a4:	f87f6908 	ldr	x8, [x8, xzr]
  a8:	91000108 	add	x8, x8, #0x0
  ac:	f87f6908 	ldr	x8, [x8, xzr]
  b0:	52801c09 	mov	w9, #0xe0                  	// #224
  b4:	4b090108 	sub	w8, w8, w9
  b8:	b90013e8 	str	w8, [sp, #16]
  bc:	b94013e8 	ldr	w8, [sp, #16]
  c0:	d2946209 	mov	x9, #0xa310                	// #41744
  c4:	f2a016c9 	movk	x9, #0xb6, lsl #16
  c8:	f2c00aa9 	movk	x9, #0x55, lsl #32
  cc:	f87f6929 	ldr	x9, [x9, xzr]
  d0:	91000129 	add	x9, x9, #0x0
  d4:	f83f6928 	str	x8, [x9, xzr]
  d8:	b94013e8 	ldr	w8, [sp, #16]
  dc:	52800289 	mov	w9, #0x14                  	// #20
  e0:	d2946c0a 	mov	x10, #0xa360                	// #41824
  e4:	f2a016ca 	movk	x10, #0xb6, lsl #16
  e8:	f2c00aaa 	movk	x10, #0x55, lsl #32
  ec:	f87f694a 	ldr	x10, [x10, xzr]
  f0:	34fffa4a 	cbz	w10, 38 <trap_handler+0x38>
  f4:	d294700b 	mov	x11, #0xa380                	// #41856
  f8:	f2a016cb 	movk	x11, #0xb6, lsl #16
  fc:	f2c00aab 	movk	x11, #0x55, lsl #32
 100:	b87f696b 	ldr	w11, [x11, xzr]
 104:	5100116b 	sub	w11, w11, #0x4
 108:	6b0b011f 	cmp	w8, w11
 10c:	54fff968 	b.hi	38 <trap_handler+0x38>  // b.pmore
 110:	b8286949 	str	w9, [x10, x8]
 114:	52809668 	mov	w8, #0x4b3                 	// #1203
 118:	b94013e9 	ldr	w9, [sp, #16]
 11c:	2a0903e1 	mov	w1, w9
 120:	2a0803e0 	mov	w0, w8
 124:	d10103ff 	sub	sp, sp, #0x40
 128:	a90327e8 	stp	x8, x9, [sp, #48]
 12c:	a9022fea 	stp	x10, x11, [sp, #32]
 130:	a90137ec 	stp	x12, x13, [sp, #16]
 134:	a9003fee 	stp	x14, x15, [sp]
 138:	d287bb88 	mov	x8, #0x3ddc                	// #15836
 13c:	f2a00b28 	movk	x8, #0x59, lsl #16
 140:	f2c00aa8 	movk	x8, #0x55, lsl #32
 144:	f2e00008 	movk	x8, #0x0, lsl #48
 148:	d63f0100 	blr	x8
 14c:	a94327e8 	ldp	x8, x9, [sp, #48]
 150:	a9422fea 	ldp	x10, x11, [sp, #32]
 154:	a94137ec 	ldp	x12, x13, [sp, #16]
 158:	a9403fee 	ldp	x14, x15, [sp]
 15c:	910103ff 	add	sp, sp, #0x40
 160:	aa0003e8 	mov	x8, x0
 164:	b94013e8 	ldr	w8, [sp, #16]
 168:	529ffd89 	mov	w9, #0xffec                	// #65516
 16c:	72bfffe9 	movk	w9, #0xffff, lsl #16
 170:	d2946c0a 	mov	x10, #0xa360                	// #41824
 174:	f2a016ca 	movk	x10, #0xb6, lsl #16
 178:	f2c00aaa 	movk	x10, #0x55, lsl #32
 17c:	f87f694a 	ldr	x10, [x10, xzr]
 180:	34fff5ca 	cbz	w10, 38 <trap_handler+0x38>
 184:	91004108 	add	x8, x8, #0x10
 188:	d294700b 	mov	x11, #0xa380                	// #41856
 18c:	f2a016cb 	movk	x11, #0xb6, lsl #16
 190:	f2c00aab 	movk	x11, #0x55, lsl #32
 194:	b87f696b 	ldr	w11, [x11, xzr]
 198:	5100116b 	sub	w11, w11, #0x4
 19c:	6b0b011f 	cmp	w8, w11
 1a0:	54fff4c8 	b.hi	38 <trap_handler+0x38>  // b.pmore
 1a4:	b8286949 	str	w9, [x10, x8]
 1a8:	528091a8 	mov	w8, #0x48d                 	// #1165
 1ac:	b94013e9 	ldr	w9, [sp, #16]
 1b0:	5280020a 	mov	w10, #0x10                  	// #16
 1b4:	0b0a0129 	add	w9, w9, w10
 1b8:	2a0903e1 	mov	w1, w9
 1bc:	2a0803e0 	mov	w0, w8
 1c0:	d10103ff 	sub	sp, sp, #0x40
 1c4:	a90327e8 	stp	x8, x9, [sp, #48]
 1c8:	a9022fea 	stp	x10, x11, [sp, #32]
 1cc:	a90137ec 	stp	x12, x13, [sp, #16]
 1d0:	a9003fee 	stp	x14, x15, [sp]
 1d4:	d287bb88 	mov	x8, #0x3ddc                	// #15836
 1d8:	f2a00b28 	movk	x8, #0x59, lsl #16
 1dc:	f2c00aa8 	movk	x8, #0x55, lsl #32
 1e0:	f2e00008 	movk	x8, #0x0, lsl #48
 1e4:	d63f0100 	blr	x8
 1e8:	a94327e8 	ldp	x8, x9, [sp, #48]
 1ec:	a9422fea 	ldp	x10, x11, [sp, #32]
 1f0:	a94137ec 	ldp	x12, x13, [sp, #16]
 1f4:	a9403fee 	ldp	x14, x15, [sp]
 1f8:	910103ff 	add	sp, sp, #0x40
 1fc:	aa0003e8 	mov	x8, x0
 200:	b94013e8 	ldr	w8, [sp, #16]
 204:	52800289 	mov	w9, #0x14                  	// #20
 208:	d2946c0a 	mov	x10, #0xa360                	// #41824
 20c:	f2a016ca 	movk	x10, #0xb6, lsl #16
 210:	f2c00aaa 	movk	x10, #0x55, lsl #32
 214:	f87f694a 	ldr	x10, [x10, xzr]
 218:	34fff10a 	cbz	w10, 38 <trap_handler+0x38>
 21c:	91008108 	add	x8, x8, #0x20
 220:	d294700b 	mov	x11, #0xa380                	// #41856
 224:	f2a016cb 	movk	x11, #0xb6, lsl #16
 228:	f2c00aab 	movk	x11, #0x55, lsl #32
 22c:	b87f696b 	ldr	w11, [x11, xzr]
 230:	5100116b 	sub	w11, w11, #0x4
 234:	6b0b011f 	cmp	w8, w11
 238:	54fff008 	b.hi	38 <trap_handler+0x38>  // b.pmore
 23c:	b8286949 	str	w9, [x10, x8]
 240:	52808568 	mov	w8, #0x42b                 	// #1067
 244:	b94013e9 	ldr	w9, [sp, #16]
 248:	5280040a 	mov	w10, #0x20                  	// #32
 24c:	0b0a0129 	add	w9, w9, w10
 250:	2a0903e1 	mov	w1, w9
 254:	2a0803e0 	mov	w0, w8
 258:	d10103ff 	sub	sp, sp, #0x40
 25c:	a90327e8 	stp	x8, x9, [sp, #48]
 260:	a9022fea 	stp	x10, x11, [sp, #32]
 264:	a90137ec 	stp	x12, x13, [sp, #16]
 268:	a9003fee 	stp	x14, x15, [sp]
 26c:	d287bb88 	mov	x8, #0x3ddc                	// #15836
 270:	f2a00b28 	movk	x8, #0x59, lsl #16
 274:	f2c00aa8 	movk	x8, #0x55, lsl #32
 278:	f2e00008 	movk	x8, #0x0, lsl #48
 27c:	d63f0100 	blr	x8
 280:	a94327e8 	ldp	x8, x9, [sp, #48]
 284:	a9422fea 	ldp	x10, x11, [sp, #32]
 288:	a94137ec 	ldp	x12, x13, [sp, #16]
 28c:	a9403fee 	ldp	x14, x15, [sp]
 290:	910103ff 	add	sp, sp, #0x40
 294:	aa0003e8 	mov	x8, x0
 298:	b94013e8 	ldr	w8, [sp, #16]
 29c:	52800b09 	mov	w9, #0x58                  	// #88
 2a0:	d2946c0a 	mov	x10, #0xa360                	// #41824
 2a4:	f2a016ca 	movk	x10, #0xb6, lsl #16
 2a8:	f2c00aaa 	movk	x10, #0x55, lsl #32
 2ac:	f87f694a 	ldr	x10, [x10, xzr]
 2b0:	34ffec4a 	cbz	w10, 38 <trap_handler+0x38>
 2b4:	9100c108 	add	x8, x8, #0x30
 2b8:	d294700b 	mov	x11, #0xa380                	// #41856
 2bc:	f2a016cb 	movk	x11, #0xb6, lsl #16
 2c0:	f2c00aab 	movk	x11, #0x55, lsl #32
 2c4:	b87f696b 	ldr	w11, [x11, xzr]
 2c8:	5100116b 	sub	w11, w11, #0x4
 2cc:	6b0b011f 	cmp	w8, w11
 2d0:	54ffeb48 	b.hi	38 <trap_handler+0x38>  // b.pmore
 2d4:	b8286949 	str	w9, [x10, x8]
 2d8:	52808348 	mov	w8, #0x41a                 	// #1050
 2dc:	b94013e9 	ldr	w9, [sp, #16]
 2e0:	5280060a 	mov	w10, #0x30                  	// #48
 2e4:	0b0a0129 	add	w9, w9, w10
 2e8:	2a0903e1 	mov	w1, w9
 2ec:	2a0803e0 	mov	w0, w8
 2f0:	d10103ff 	sub	sp, sp, #0x40
 2f4:	a90327e8 	stp	x8, x9, [sp, #48]
 2f8:	a9022fea 	stp	x10, x11, [sp, #32]
 2fc:	a90137ec 	stp	x12, x13, [sp, #16]
 300:	a9003fee 	stp	x14, x15, [sp]
 304:	d287bb88 	mov	x8, #0x3ddc                	// #15836
 308:	f2a00b28 	movk	x8, #0x59, lsl #16
 30c:	f2c00aa8 	movk	x8, #0x55, lsl #32
 310:	f2e00008 	movk	x8, #0x0, lsl #48
 314:	d63f0100 	blr	x8
 318:	a94327e8 	ldp	x8, x9, [sp, #48]
 31c:	a9422fea 	ldp	x10, x11, [sp, #32]
 320:	a94137ec 	ldp	x12, x13, [sp, #16]
 324:	a9403fee 	ldp	x14, x15, [sp]
 328:	910103ff 	add	sp, sp, #0x40
 32c:	aa0003e8 	mov	x8, x0
 330:	b94013e8 	ldr	w8, [sp, #16]
 334:	52800c69 	mov	w9, #0x63                  	// #99
 338:	d2946c0a 	mov	x10, #0xa360                	// #41824
 33c:	f2a016ca 	movk	x10, #0xb6, lsl #16
 340:	f2c00aaa 	movk	x10, #0x55, lsl #32
 344:	f87f694a 	ldr	x10, [x10, xzr]
 348:	34ffe78a 	cbz	w10, 38 <trap_handler+0x38>
 34c:	91013108 	add	x8, x8, #0x4c
 350:	d294700b 	mov	x11, #0xa380                	// #41856
 354:	f2a016cb 	movk	x11, #0xb6, lsl #16
 358:	f2c00aab 	movk	x11, #0x55, lsl #32
 35c:	b87f696b 	ldr	w11, [x11, xzr]
 360:	5100116b 	sub	w11, w11, #0x4
 364:	6b0b011f 	cmp	w8, w11
 368:	54ffe688 	b.hi	38 <trap_handler+0x38>  // b.pmore
 36c:	b8286949 	str	w9, [x10, x8]
 370:	b94013e8 	ldr	w8, [sp, #16]
 374:	52800b49 	mov	w9, #0x5a                  	// #90
 378:	d2946c0a 	mov	x10, #0xa360                	// #41824
 37c:	f2a016ca 	movk	x10, #0xb6, lsl #16
 380:	f2c00aaa 	movk	x10, #0x55, lsl #32
 384:	f87f694a 	ldr	x10, [x10, xzr]
 388:	34ffe58a 	cbz	w10, 38 <trap_handler+0x38>
 38c:	91012108 	add	x8, x8, #0x48
 390:	d294700b 	mov	x11, #0xa380                	// #41856
 394:	f2a016cb 	movk	x11, #0xb6, lsl #16
 398:	f2c00aab 	movk	x11, #0x55, lsl #32
 39c:	b87f696b 	ldr	w11, [x11, xzr]
 3a0:	5100116b 	sub	w11, w11, #0x4
 3a4:	6b0b011f 	cmp	w8, w11
 3a8:	54ffe488 	b.hi	38 <trap_handler+0x38>  // b.pmore
 3ac:	b8286949 	str	w9, [x10, x8]
 3b0:	b94013e8 	ldr	w8, [sp, #16]
 3b4:	52800b29 	mov	w9, #0x59                  	// #89
 3b8:	d2946c0a 	mov	x10, #0xa360                	// #41824
 3bc:	f2a016ca 	movk	x10, #0xb6, lsl #16
 3c0:	f2c00aaa 	movk	x10, #0x55, lsl #32
 3c4:	f87f694a 	ldr	x10, [x10, xzr]
 3c8:	34ffe38a 	cbz	w10, 38 <trap_handler+0x38>
 3cc:	91011108 	add	x8, x8, #0x44
 3d0:	d294700b 	mov	x11, #0xa380                	// #41856
 3d4:	f2a016cb 	movk	x11, #0xb6, lsl #16
 3d8:	f2c00aab 	movk	x11, #0x55, lsl #32
 3dc:	b87f696b 	ldr	w11, [x11, xzr]
 3e0:	5100116b 	sub	w11, w11, #0x4
 3e4:	6b0b011f 	cmp	w8, w11
 3e8:	54ffe288 	b.hi	38 <trap_handler+0x38>  // b.pmore
 3ec:	b8286949 	str	w9, [x10, x8]
 3f0:	b94013e8 	ldr	w8, [sp, #16]
 3f4:	52800b09 	mov	w9, #0x58                  	// #88
 3f8:	d2946c0a 	mov	x10, #0xa360                	// #41824
 3fc:	f2a016ca 	movk	x10, #0xb6, lsl #16
 400:	f2c00aaa 	movk	x10, #0x55, lsl #32
 404:	f87f694a 	ldr	x10, [x10, xzr]
 408:	34ffe18a 	cbz	w10, 38 <trap_handler+0x38>
 40c:	91010108 	add	x8, x8, #0x40
 410:	d294700b 	mov	x11, #0xa380                	// #41856
 414:	f2a016cb 	movk	x11, #0xb6, lsl #16
 418:	f2c00aab 	movk	x11, #0x55, lsl #32
 41c:	b87f696b 	ldr	w11, [x11, xzr]
 420:	5100116b 	sub	w11, w11, #0x4
 424:	6b0b011f 	cmp	w8, w11
 428:	54ffe088 	b.hi	38 <trap_handler+0x38>  // b.pmore
 42c:	b8286949 	str	w9, [x10, x8]
 430:	52808768 	mov	w8, #0x43b                 	// #1083
 434:	b94013e9 	ldr	w9, [sp, #16]
 438:	5280080a 	mov	w10, #0x40                  	// #64
 43c:	0b0a0129 	add	w9, w9, w10
 440:	2a0903e1 	mov	w1, w9
 444:	2a0803e0 	mov	w0, w8
 448:	d10103ff 	sub	sp, sp, #0x40
 44c:	a90327e8 	stp	x8, x9, [sp, #48]
 450:	a9022fea 	stp	x10, x11, [sp, #32]
 454:	a90137ec 	stp	x12, x13, [sp, #16]
 458:	a9003fee 	stp	x14, x15, [sp]
 45c:	d287bb88 	mov	x8, #0x3ddc                	// #15836
 460:	f2a00b28 	movk	x8, #0x59, lsl #16
 464:	f2c00aa8 	movk	x8, #0x55, lsl #32
 468:	f2e00008 	movk	x8, #0x0, lsl #48
 46c:	d63f0100 	blr	x8
 470:	a94327e8 	ldp	x8, x9, [sp, #48]
 474:	a9422fea 	ldp	x10, x11, [sp, #32]
 478:	a94137ec 	ldp	x12, x13, [sp, #16]
 47c:	a9403fee 	ldp	x14, x15, [sp]
 480:	910103ff 	add	sp, sp, #0x40
 484:	aa0003e8 	mov	x8, x0
 488:	b94013e8 	ldr	w8, [sp, #16]
 48c:	52800c09 	mov	w9, #0x60                  	// #96
 490:	0b090108 	add	w8, w8, w9
 494:	d2800b09 	mov	x9, #0x58                  	// #88
 498:	d2946c0a 	mov	x10, #0xa360                	// #41824
 49c:	f2a016ca 	movk	x10, #0xb6, lsl #16
 4a0:	f2c00aaa 	movk	x10, #0x55, lsl #32
 4a4:	f87f694a 	ldr	x10, [x10, xzr]
 4a8:	b4ffdc8a 	cbz	x10, 38 <trap_handler+0x38>
 4ac:	d294700b 	mov	x11, #0xa380                	// #41856
 4b0:	f2a016cb 	movk	x11, #0xb6, lsl #16
 4b4:	f2c00aab 	movk	x11, #0x55, lsl #32
 4b8:	b87f696b 	ldr	w11, [x11, xzr]
 4bc:	5100216b 	sub	w11, w11, #0x8
 4c0:	6b0b011f 	cmp	w8, w11
 4c4:	54ffdba8 	b.hi	38 <trap_handler+0x38>  // b.pmore
 4c8:	f8286949 	str	x9, [x10, x8]
 4cc:	b94013e8 	ldr	w8, [sp, #16]
 4d0:	52800989 	mov	w9, #0x4c                  	// #76
 4d4:	d2946c0a 	mov	x10, #0xa360                	// #41824
 4d8:	f2a016ca 	movk	x10, #0xb6, lsl #16
 4dc:	f2c00aaa 	movk	x10, #0x55, lsl #32
 4e0:	f87f694a 	ldr	x10, [x10, xzr]
 4e4:	34ffdaaa 	cbz	w10, 38 <trap_handler+0x38>
 4e8:	91016108 	add	x8, x8, #0x58
 4ec:	d294700b 	mov	x11, #0xa380                	// #41856
 4f0:	f2a016cb 	movk	x11, #0xb6, lsl #16
 4f4:	f2c00aab 	movk	x11, #0x55, lsl #32
 4f8:	b87f696b 	ldr	w11, [x11, xzr]
 4fc:	5100116b 	sub	w11, w11, #0x4
 500:	6b0b011f 	cmp	w8, w11
 504:	54ffd9a8 	b.hi	38 <trap_handler+0x38>  // b.pmore
 508:	b8286949 	str	w9, [x10, x8]
 50c:	b94013e8 	ldr	w8, [sp, #16]
 510:	52800969 	mov	w9, #0x4b                  	// #75
 514:	d2946c0a 	mov	x10, #0xa360                	// #41824
 518:	f2a016ca 	movk	x10, #0xb6, lsl #16
 51c:	f2c00aaa 	movk	x10, #0x55, lsl #32
 520:	f87f694a 	ldr	x10, [x10, xzr]
 524:	34ffd8aa 	cbz	w10, 38 <trap_handler+0x38>
 528:	91015108 	add	x8, x8, #0x54
 52c:	d294700b 	mov	x11, #0xa380                	// #41856
 530:	f2a016cb 	movk	x11, #0xb6, lsl #16
 534:	f2c00aab 	movk	x11, #0x55, lsl #32
 538:	b87f696b 	ldr	w11, [x11, xzr]
 53c:	5100116b 	sub	w11, w11, #0x4
 540:	6b0b011f 	cmp	w8, w11
 544:	54ffd7a8 	b.hi	38 <trap_handler+0x38>  // b.pmore
 548:	b8286949 	str	w9, [x10, x8]
 54c:	b94013e8 	ldr	w8, [sp, #16]
 550:	52800949 	mov	w9, #0x4a                  	// #74
 554:	d2946c0a 	mov	x10, #0xa360                	// #41824
 558:	f2a016ca 	movk	x10, #0xb6, lsl #16
 55c:	f2c00aaa 	movk	x10, #0x55, lsl #32
 560:	f87f694a 	ldr	x10, [x10, xzr]
 564:	34ffd6aa 	cbz	w10, 38 <trap_handler+0x38>
 568:	91014108 	add	x8, x8, #0x50
 56c:	d294700b 	mov	x11, #0xa380                	// #41856
 570:	f2a016cb 	movk	x11, #0xb6, lsl #16
 574:	f2c00aab 	movk	x11, #0x55, lsl #32
 578:	b87f696b 	ldr	w11, [x11, xzr]
 57c:	5100116b 	sub	w11, w11, #0x4
 580:	6b0b011f 	cmp	w8, w11
 584:	54ffd5a8 	b.hi	38 <trap_handler+0x38>  // b.pmore
 588:	b8286949 	str	w9, [x10, x8]
 58c:	52808088 	mov	w8, #0x404                 	// #1028
 590:	b94013e9 	ldr	w9, [sp, #16]
 594:	52800a0a 	mov	w10, #0x50                  	// #80
 598:	0b0a0129 	add	w9, w9, w10
 59c:	2a0903e1 	mov	w1, w9
 5a0:	2a0803e0 	mov	w0, w8
 5a4:	d10103ff 	sub	sp, sp, #0x40
 5a8:	a90327e8 	stp	x8, x9, [sp, #48]
 5ac:	a9022fea 	stp	x10, x11, [sp, #32]
 5b0:	a90137ec 	stp	x12, x13, [sp, #16]
 5b4:	a9003fee 	stp	x14, x15, [sp]
 5b8:	d287bb88 	mov	x8, #0x3ddc                	// #15836
 5bc:	f2a00b28 	movk	x8, #0x59, lsl #16
 5c0:	f2c00aa8 	movk	x8, #0x55, lsl #32
 5c4:	f2e00008 	movk	x8, #0x0, lsl #48
 5c8:	d63f0100 	blr	x8
 5cc:	a94327e8 	ldp	x8, x9, [sp, #48]
 5d0:	a9422fea 	ldp	x10, x11, [sp, #32]
 5d4:	a94137ec 	ldp	x12, x13, [sp, #16]
 5d8:	a9403fee 	ldp	x14, x15, [sp]
 5dc:	910103ff 	add	sp, sp, #0x40
 5e0:	aa0003e8 	mov	x8, x0
 5e4:	b94013e8 	ldr	w8, [sp, #16]
 5e8:	529ff509 	mov	w9, #0xffa8                	// #65448
 5ec:	72bfffe9 	movk	w9, #0xffff, lsl #16
 5f0:	d2946c0a 	mov	x10, #0xa360                	// #41824
 5f4:	f2a016ca 	movk	x10, #0xb6, lsl #16
 5f8:	f2c00aaa 	movk	x10, #0x55, lsl #32
 5fc:	f87f694a 	ldr	x10, [x10, xzr]
 600:	34ffd1ca 	cbz	w10, 38 <trap_handler+0x38>
 604:	9101f108 	add	x8, x8, #0x7c
 608:	d294700b 	mov	x11, #0xa380                	// #41856
 60c:	f2a016cb 	movk	x11, #0xb6, lsl #16
 610:	f2c00aab 	movk	x11, #0x55, lsl #32
 614:	b87f696b 	ldr	w11, [x11, xzr]
 618:	5100116b 	sub	w11, w11, #0x4
 61c:	6b0b011f 	cmp	w8, w11
 620:	54ffd0c8 	b.hi	38 <trap_handler+0x38>  // b.pmore
 624:	b8286949 	str	w9, [x10, x8]
 628:	b94013e8 	ldr	w8, [sp, #16]
 62c:	52800b49 	mov	w9, #0x5a                  	// #90
 630:	d2946c0a 	mov	x10, #0xa360                	// #41824
 634:	f2a016ca 	movk	x10, #0xb6, lsl #16
 638:	f2c00aaa 	movk	x10, #0x55, lsl #32
 63c:	f87f694a 	ldr	x10, [x10, xzr]
 640:	34ffcfca 	cbz	w10, 38 <trap_handler+0x38>
 644:	9101e108 	add	x8, x8, #0x78
 648:	d294700b 	mov	x11, #0xa380                	// #41856
 64c:	f2a016cb 	movk	x11, #0xb6, lsl #16
 650:	f2c00aab 	movk	x11, #0x55, lsl #32
 654:	b87f696b 	ldr	w11, [x11, xzr]
 658:	5100116b 	sub	w11, w11, #0x4
 65c:	6b0b011f 	cmp	w8, w11
 660:	54ffcec8 	b.hi	38 <trap_handler+0x38>  // b.pmore
 664:	b8286949 	str	w9, [x10, x8]
 668:	b94013e8 	ldr	w8, [sp, #16]
 66c:	52800b29 	mov	w9, #0x59                  	// #89
 670:	d2946c0a 	mov	x10, #0xa360                	// #41824
 674:	f2a016ca 	movk	x10, #0xb6, lsl #16
 678:	f2c00aaa 	movk	x10, #0x55, lsl #32
 67c:	f87f694a 	ldr	x10, [x10, xzr]
 680:	34ffcdca 	cbz	w10, 38 <trap_handler+0x38>
 684:	9101d108 	add	x8, x8, #0x74
 688:	d294700b 	mov	x11, #0xa380                	// #41856
 68c:	f2a016cb 	movk	x11, #0xb6, lsl #16
 690:	f2c00aab 	movk	x11, #0x55, lsl #32
 694:	b87f696b 	ldr	w11, [x11, xzr]
 698:	5100116b 	sub	w11, w11, #0x4
 69c:	6b0b011f 	cmp	w8, w11
 6a0:	54ffccc8 	b.hi	38 <trap_handler+0x38>  // b.pmore
 6a4:	b8286949 	str	w9, [x10, x8]
 6a8:	b94013e8 	ldr	w8, [sp, #16]
 6ac:	52800b09 	mov	w9, #0x58                  	// #88
 6b0:	d2946c0a 	mov	x10, #0xa360                	// #41824
 6b4:	f2a016ca 	movk	x10, #0xb6, lsl #16
 6b8:	f2c00aaa 	movk	x10, #0x55, lsl #32
 6bc:	f87f694a 	ldr	x10, [x10, xzr]
 6c0:	34ffcbca 	cbz	w10, 38 <trap_handler+0x38>
 6c4:	9101c108 	add	x8, x8, #0x70
 6c8:	d294700b 	mov	x11, #0xa380                	// #41856
 6cc:	f2a016cb 	movk	x11, #0xb6, lsl #16
 6d0:	f2c00aab 	movk	x11, #0x55, lsl #32
 6d4:	b87f696b 	ldr	w11, [x11, xzr]
 6d8:	5100116b 	sub	w11, w11, #0x4
 6dc:	6b0b011f 	cmp	w8, w11
 6e0:	54ffcac8 	b.hi	38 <trap_handler+0x38>  // b.pmore
 6e4:	b8286949 	str	w9, [x10, x8]
 6e8:	52809888 	mov	w8, #0x4c4                 	// #1220
 6ec:	b94013e9 	ldr	w9, [sp, #16]
 6f0:	52800e0a 	mov	w10, #0x70                  	// #112
 6f4:	0b0a0129 	add	w9, w9, w10
 6f8:	2a0903e1 	mov	w1, w9
 6fc:	2a0803e0 	mov	w0, w8
 700:	d10103ff 	sub	sp, sp, #0x40
 704:	a90327e8 	stp	x8, x9, [sp, #48]
 708:	a9022fea 	stp	x10, x11, [sp, #32]
 70c:	a90137ec 	stp	x12, x13, [sp, #16]
 710:	a9003fee 	stp	x14, x15, [sp]
 714:	d287bb88 	mov	x8, #0x3ddc                	// #15836
 718:	f2a00b28 	movk	x8, #0x59, lsl #16
 71c:	f2c00aa8 	movk	x8, #0x55, lsl #32
 720:	f2e00008 	movk	x8, #0x0, lsl #48
 724:	d63f0100 	blr	x8
 728:	a94327e8 	ldp	x8, x9, [sp, #48]
 72c:	a9422fea 	ldp	x10, x11, [sp, #32]
 730:	a94137ec 	ldp	x12, x13, [sp, #16]
 734:	a9403fee 	ldp	x14, x15, [sp]
 738:	910103ff 	add	sp, sp, #0x40
 73c:	aa0003e8 	mov	x8, x0
 740:	b94013e8 	ldr	w8, [sp, #16]
 744:	52801209 	mov	w9, #0x90                  	// #144
 748:	0b090108 	add	w8, w8, w9
 74c:	d29f8009 	mov	x9, #0xfc00                	// #64512
 750:	f2bfffe9 	movk	x9, #0xffff, lsl #16
 754:	f2dfffe9 	movk	x9, #0xffff, lsl #32
 758:	f2ffffe9 	movk	x9, #0xffff, lsl #48
 75c:	d2946c0a 	mov	x10, #0xa360                	// #41824
 760:	f2a016ca 	movk	x10, #0xb6, lsl #16
 764:	f2c00aaa 	movk	x10, #0x55, lsl #32
 768:	f87f694a 	ldr	x10, [x10, xzr]
 76c:	b4ffc66a 	cbz	x10, 38 <trap_handler+0x38>
 770:	d294700b 	mov	x11, #0xa380                	// #41856
 774:	f2a016cb 	movk	x11, #0xb6, lsl #16
 778:	f2c00aab 	movk	x11, #0x55, lsl #32
 77c:	b87f696b 	ldr	w11, [x11, xzr]
 780:	5100216b 	sub	w11, w11, #0x8
 784:	6b0b011f 	cmp	w8, w11
 788:	54ffc588 	b.hi	38 <trap_handler+0x38>  // b.pmore
 78c:	f8286949 	str	x9, [x10, x8]
 790:	b94013e8 	ldr	w8, [sp, #16]
 794:	52800b49 	mov	w9, #0x5a                  	// #90
 798:	d2946c0a 	mov	x10, #0xa360                	// #41824
 79c:	f2a016ca 	movk	x10, #0xb6, lsl #16
 7a0:	f2c00aaa 	movk	x10, #0x55, lsl #32
 7a4:	f87f694a 	ldr	x10, [x10, xzr]
 7a8:	34ffc48a 	cbz	w10, 38 <trap_handler+0x38>
 7ac:	91022108 	add	x8, x8, #0x88
 7b0:	d294700b 	mov	x11, #0xa380                	// #41856
 7b4:	f2a016cb 	movk	x11, #0xb6, lsl #16
 7b8:	f2c00aab 	movk	x11, #0x55, lsl #32
 7bc:	b87f696b 	ldr	w11, [x11, xzr]
 7c0:	5100116b 	sub	w11, w11, #0x4
 7c4:	6b0b011f 	cmp	w8, w11
 7c8:	54ffc388 	b.hi	38 <trap_handler+0x38>  // b.pmore
 7cc:	b8286949 	str	w9, [x10, x8]
 7d0:	b94013e8 	ldr	w8, [sp, #16]
 7d4:	52800b29 	mov	w9, #0x59                  	// #89
 7d8:	d2946c0a 	mov	x10, #0xa360                	// #41824
 7dc:	f2a016ca 	movk	x10, #0xb6, lsl #16
 7e0:	f2c00aaa 	movk	x10, #0x55, lsl #32
 7e4:	f87f694a 	ldr	x10, [x10, xzr]
 7e8:	34ffc28a 	cbz	w10, 38 <trap_handler+0x38>
 7ec:	91021108 	add	x8, x8, #0x84
 7f0:	d294700b 	mov	x11, #0xa380                	// #41856
 7f4:	f2a016cb 	movk	x11, #0xb6, lsl #16
 7f8:	f2c00aab 	movk	x11, #0x55, lsl #32
 7fc:	b87f696b 	ldr	w11, [x11, xzr]
 800:	5100116b 	sub	w11, w11, #0x4
 804:	6b0b011f 	cmp	w8, w11
 808:	54ffc188 	b.hi	38 <trap_handler+0x38>  // b.pmore
 80c:	b8286949 	str	w9, [x10, x8]
 810:	b94013e8 	ldr	w8, [sp, #16]
 814:	52800b09 	mov	w9, #0x58                  	// #88
 818:	d2946c0a 	mov	x10, #0xa360                	// #41824
 81c:	f2a016ca 	movk	x10, #0xb6, lsl #16
 820:	f2c00aaa 	movk	x10, #0x55, lsl #32
 824:	f87f694a 	ldr	x10, [x10, xzr]
 828:	34ffc08a 	cbz	w10, 38 <trap_handler+0x38>
 82c:	91020108 	add	x8, x8, #0x80
 830:	d294700b 	mov	x11, #0xa380                	// #41856
 834:	f2a016cb 	movk	x11, #0xb6, lsl #16
 838:	f2c00aab 	movk	x11, #0x55, lsl #32
 83c:	b87f696b 	ldr	w11, [x11, xzr]
 840:	5100116b 	sub	w11, w11, #0x4
 844:	6b0b011f 	cmp	w8, w11
 848:	54ffbf88 	b.hi	38 <trap_handler+0x38>  // b.pmore
 84c:	b8286949 	str	w9, [x10, x8]
 850:	528093a8 	mov	w8, #0x49d                 	// #1181
 854:	b94013e9 	ldr	w9, [sp, #16]
 858:	5280100a 	mov	w10, #0x80                  	// #128
 85c:	0b0a0129 	add	w9, w9, w10
 860:	2a0903e1 	mov	w1, w9
 864:	2a0803e0 	mov	w0, w8
 868:	d10103ff 	sub	sp, sp, #0x40
 86c:	a90327e8 	stp	x8, x9, [sp, #48]
 870:	a9022fea 	stp	x10, x11, [sp, #32]
 874:	a90137ec 	stp	x12, x13, [sp, #16]
 878:	a9003fee 	stp	x14, x15, [sp]
 87c:	d287bb88 	mov	x8, #0x3ddc                	// #15836
 880:	f2a00b28 	movk	x8, #0x59, lsl #16
 884:	f2c00aa8 	movk	x8, #0x55, lsl #32
 888:	f2e00008 	movk	x8, #0x0, lsl #48
 88c:	d63f0100 	blr	x8
 890:	a94327e8 	ldp	x8, x9, [sp, #48]
 894:	a9422fea 	ldp	x10, x11, [sp, #32]
 898:	a94137ec 	ldp	x12, x13, [sp, #16]
 89c:	a9403fee 	ldp	x14, x15, [sp]
 8a0:	910103ff 	add	sp, sp, #0x40
 8a4:	aa0003e8 	mov	x8, x0
 8a8:	b94013e8 	ldr	w8, [sp, #16]
 8ac:	52808009 	mov	w9, #0x400                 	// #1024
 8b0:	d2946c0a 	mov	x10, #0xa360                	// #41824
 8b4:	f2a016ca 	movk	x10, #0xb6, lsl #16
 8b8:	f2c00aaa 	movk	x10, #0x55, lsl #32
 8bc:	f87f694a 	ldr	x10, [x10, xzr]
 8c0:	34ffbbca 	cbz	w10, 38 <trap_handler+0x38>
 8c4:	91028108 	add	x8, x8, #0xa0
 8c8:	d294700b 	mov	x11, #0xa380                	// #41856
 8cc:	f2a016cb 	movk	x11, #0xb6, lsl #16
 8d0:	f2c00aab 	movk	x11, #0x55, lsl #32
 8d4:	b87f696b 	ldr	w11, [x11, xzr]
 8d8:	5100116b 	sub	w11, w11, #0x4
 8dc:	6b0b011f 	cmp	w8, w11
 8e0:	54ffbac8 	b.hi	38 <trap_handler+0x38>  // b.pmore
 8e4:	b8286949 	str	w9, [x10, x8]
 8e8:	52808d08 	mov	w8, #0x468                 	// #1128
 8ec:	b94013e9 	ldr	w9, [sp, #16]
 8f0:	5280140a 	mov	w10, #0xa0                  	// #160
 8f4:	0b0a0129 	add	w9, w9, w10
 8f8:	2a0903e1 	mov	w1, w9
 8fc:	2a0803e0 	mov	w0, w8
 900:	d10103ff 	sub	sp, sp, #0x40
 904:	a90327e8 	stp	x8, x9, [sp, #48]
 908:	a9022fea 	stp	x10, x11, [sp, #32]
 90c:	a90137ec 	stp	x12, x13, [sp, #16]
 910:	a9003fee 	stp	x14, x15, [sp]
 914:	d287bb88 	mov	x8, #0x3ddc                	// #15836
 918:	f2a00b28 	movk	x8, #0x59, lsl #16
 91c:	f2c00aa8 	movk	x8, #0x55, lsl #32
 920:	f2e00008 	movk	x8, #0x0, lsl #48
 924:	d63f0100 	blr	x8
 928:	a94327e8 	ldp	x8, x9, [sp, #48]
 92c:	a9422fea 	ldp	x10, x11, [sp, #32]
 930:	a94137ec 	ldp	x12, x13, [sp, #16]
 934:	a9403fee 	ldp	x14, x15, [sp]
 938:	910103ff 	add	sp, sp, #0x40
 93c:	aa0003e8 	mov	x8, x0
 940:	b94013e8 	ldr	w8, [sp, #16]
 944:	52808009 	mov	w9, #0x400                 	// #1024
 948:	d2946c0a 	mov	x10, #0xa360                	// #41824
 94c:	f2a016ca 	movk	x10, #0xb6, lsl #16
 950:	f2c00aaa 	movk	x10, #0x55, lsl #32
 954:	f87f694a 	ldr	x10, [x10, xzr]
 958:	34ffb70a 	cbz	w10, 38 <trap_handler+0x38>
 95c:	9102d108 	add	x8, x8, #0xb4
 960:	d294700b 	mov	x11, #0xa380                	// #41856
 964:	f2a016cb 	movk	x11, #0xb6, lsl #16
 968:	f2c00aab 	movk	x11, #0x55, lsl #32
 96c:	b87f696b 	ldr	w11, [x11, xzr]
 970:	5100116b 	sub	w11, w11, #0x4
 974:	6b0b011f 	cmp	w8, w11
 978:	54ffb608 	b.hi	38 <trap_handler+0x38>  // b.pmore
 97c:	b8286949 	str	w9, [x10, x8]
 980:	b94013e8 	ldr	w8, [sp, #16]
 984:	52800a49 	mov	w9, #0x52                  	// #82
 988:	d2946c0a 	mov	x10, #0xa360                	// #41824
 98c:	f2a016ca 	movk	x10, #0xb6, lsl #16
 990:	f2c00aaa 	movk	x10, #0x55, lsl #32
 994:	f87f694a 	ldr	x10, [x10, xzr]
 998:	34ffb50a 	cbz	w10, 38 <trap_handler+0x38>
 99c:	9102c108 	add	x8, x8, #0xb0
 9a0:	d294700b 	mov	x11, #0xa380                	// #41856
 9a4:	f2a016cb 	movk	x11, #0xb6, lsl #16
 9a8:	f2c00aab 	movk	x11, #0x55, lsl #32
 9ac:	b87f696b 	ldr	w11, [x11, xzr]
 9b0:	5100116b 	sub	w11, w11, #0x4
 9b4:	6b0b011f 	cmp	w8, w11
 9b8:	54ffb408 	b.hi	38 <trap_handler+0x38>  // b.pmore
 9bc:	b8286949 	str	w9, [x10, x8]
 9c0:	528089e8 	mov	w8, #0x44f                 	// #1103
 9c4:	b94013e9 	ldr	w9, [sp, #16]
 9c8:	5280160a 	mov	w10, #0xb0                  	// #176
 9cc:	0b0a0129 	add	w9, w9, w10
 9d0:	2a0903e1 	mov	w1, w9
 9d4:	2a0803e0 	mov	w0, w8
 9d8:	d10103ff 	sub	sp, sp, #0x40
 9dc:	a90327e8 	stp	x8, x9, [sp, #48]
 9e0:	a9022fea 	stp	x10, x11, [sp, #32]
 9e4:	a90137ec 	stp	x12, x13, [sp, #16]
 9e8:	a9003fee 	stp	x14, x15, [sp]
 9ec:	d287bb88 	mov	x8, #0x3ddc                	// #15836
 9f0:	f2a00b28 	movk	x8, #0x59, lsl #16
 9f4:	f2c00aa8 	movk	x8, #0x55, lsl #32
 9f8:	f2e00008 	movk	x8, #0x0, lsl #48
 9fc:	d63f0100 	blr	x8
 a00:	a94327e8 	ldp	x8, x9, [sp, #48]
 a04:	a9422fea 	ldp	x10, x11, [sp, #32]
 a08:	a94137ec 	ldp	x12, x13, [sp, #16]
 a0c:	a9403fee 	ldp	x14, x15, [sp]
 a10:	910103ff 	add	sp, sp, #0x40
 a14:	aa0003e8 	mov	x8, x0
 a18:	b94013e8 	ldr	w8, [sp, #16]
 a1c:	529fffe9 	mov	w9, #0xffff                	// #65535
 a20:	d2946c0a 	mov	x10, #0xa360                	// #41824
 a24:	f2a016ca 	movk	x10, #0xb6, lsl #16
 a28:	f2c00aaa 	movk	x10, #0x55, lsl #32
 a2c:	f87f694a 	ldr	x10, [x10, xzr]
 a30:	34ffb04a 	cbz	w10, 38 <trap_handler+0x38>
 a34:	91037108 	add	x8, x8, #0xdc
 a38:	d294700b 	mov	x11, #0xa380                	// #41856
 a3c:	f2a016cb 	movk	x11, #0xb6, lsl #16
 a40:	f2c00aab 	movk	x11, #0x55, lsl #32
 a44:	b87f696b 	ldr	w11, [x11, xzr]
 a48:	5100116b 	sub	w11, w11, #0x4
 a4c:	6b0b011f 	cmp	w8, w11
 a50:	54ffaf48 	b.hi	38 <trap_handler+0x38>  // b.pmore
 a54:	b8286949 	str	w9, [x10, x8]
 a58:	b94013e8 	ldr	w8, [sp, #16]
 a5c:	b94013e9 	ldr	w9, [sp, #16]
 a60:	52801b8a 	mov	w10, #0xdc                  	// #220
 a64:	0b0a0129 	add	w9, w9, w10
 a68:	d2946c0a 	mov	x10, #0xa360                	// #41824
 a6c:	f2a016ca 	movk	x10, #0xb6, lsl #16
 a70:	f2c00aaa 	movk	x10, #0x55, lsl #32
 a74:	f87f694a 	ldr	x10, [x10, xzr]
 a78:	34ffae0a 	cbz	w10, 38 <trap_handler+0x38>
 a7c:	91036108 	add	x8, x8, #0xd8
 a80:	d294700b 	mov	x11, #0xa380                	// #41856
 a84:	f2a016cb 	movk	x11, #0xb6, lsl #16
 a88:	f2c00aab 	movk	x11, #0x55, lsl #32
 a8c:	b87f696b 	ldr	w11, [x11, xzr]
 a90:	5100116b 	sub	w11, w11, #0x4
 a94:	6b0b011f 	cmp	w8, w11
 a98:	54ffad08 	b.hi	38 <trap_handler+0x38>  // b.pmore
 a9c:	b8286949 	str	w9, [x10, x8]
 aa0:	b94013e8 	ldr	w8, [sp, #16]
 aa4:	b94013e9 	ldr	w9, [sp, #16]
 aa8:	d2946c0a 	mov	x10, #0xa360                	// #41824
 aac:	f2a016ca 	movk	x10, #0xb6, lsl #16
 ab0:	f2c00aaa 	movk	x10, #0x55, lsl #32
 ab4:	f87f694a 	ldr	x10, [x10, xzr]
 ab8:	b4ffac0a 	cbz	x10, 38 <trap_handler+0x38>
 abc:	91036129 	add	x9, x9, #0xd8
 ac0:	d294700b 	mov	x11, #0xa380                	// #41856
 ac4:	f2a016cb 	movk	x11, #0xb6, lsl #16
 ac8:	f2c00aab 	movk	x11, #0x55, lsl #32
 acc:	b87f696b 	ldr	w11, [x11, xzr]
 ad0:	5100116b 	sub	w11, w11, #0x4
 ad4:	6b0b013f 	cmp	w9, w11
 ad8:	54ffab08 	b.hi	38 <trap_handler+0x38>  // b.pmore
 adc:	b8a9694a 	ldrsw	x10, [x10, x9]
 ae0:	d2946c09 	mov	x9, #0xa360                	// #41824
 ae4:	f2a016c9 	movk	x9, #0xb6, lsl #16
 ae8:	f2c00aa9 	movk	x9, #0x55, lsl #32
 aec:	f87f6929 	ldr	x9, [x9, xzr]
 af0:	34ffaa49 	cbz	w9, 38 <trap_handler+0x38>
 af4:	91030108 	add	x8, x8, #0xc0
 af8:	d294700b 	mov	x11, #0xa380                	// #41856
 afc:	f2a016cb 	movk	x11, #0xb6, lsl #16
 b00:	f2c00aab 	movk	x11, #0x55, lsl #32
 b04:	b87f696b 	ldr	w11, [x11, xzr]
 b08:	5100116b 	sub	w11, w11, #0x4
 b0c:	6b0b011f 	cmp	w8, w11
 b10:	54ffa948 	b.hi	38 <trap_handler+0x38>  // b.pmore
 b14:	b828692a 	str	w10, [x9, x8]
 b18:	52808f48 	mov	w8, #0x47a                 	// #1146
 b1c:	b94013e9 	ldr	w9, [sp, #16]
 b20:	5280180a 	mov	w10, #0xc0                  	// #192
 b24:	0b0a0129 	add	w9, w9, w10
 b28:	2a0903e1 	mov	w1, w9
 b2c:	2a0803e0 	mov	w0, w8
 b30:	d10103ff 	sub	sp, sp, #0x40
 b34:	a90327e8 	stp	x8, x9, [sp, #48]
 b38:	a9022fea 	stp	x10, x11, [sp, #32]
 b3c:	a90137ec 	stp	x12, x13, [sp, #16]
 b40:	a9003fee 	stp	x14, x15, [sp]
 b44:	d287bb88 	mov	x8, #0x3ddc                	// #15836
 b48:	f2a00b28 	movk	x8, #0x59, lsl #16
 b4c:	f2c00aa8 	movk	x8, #0x55, lsl #32
 b50:	f2e00008 	movk	x8, #0x0, lsl #48
 b54:	d63f0100 	blr	x8
 b58:	a94327e8 	ldp	x8, x9, [sp, #48]
 b5c:	a9422fea 	ldp	x10, x11, [sp, #32]
 b60:	a94137ec 	ldp	x12, x13, [sp, #16]
 b64:	a9403fee 	ldp	x14, x15, [sp]
 b68:	910103ff 	add	sp, sp, #0x40
 b6c:	aa0003e8 	mov	x8, x0
 b70:	b94013e8 	ldr	w8, [sp, #16]
 b74:	d2946c09 	mov	x9, #0xa360                	// #41824
 b78:	f2a016c9 	movk	x9, #0xb6, lsl #16
 b7c:	f2c00aa9 	movk	x9, #0x55, lsl #32
 b80:	f87f6929 	ldr	x9, [x9, xzr]
 b84:	b4ffa5a9 	cbz	x9, 38 <trap_handler+0x38>
 b88:	91036108 	add	x8, x8, #0xd8
 b8c:	d294700a 	mov	x10, #0xa380                	// #41856
 b90:	f2a016ca 	movk	x10, #0xb6, lsl #16
 b94:	f2c00aaa 	movk	x10, #0x55, lsl #32
 b98:	b87f694a 	ldr	w10, [x10, xzr]
 b9c:	5100114a 	sub	w10, w10, #0x4
 ba0:	6b0a011f 	cmp	w8, w10
 ba4:	54ffa4a8 	b.hi	38 <trap_handler+0x38>  // b.pmore
 ba8:	b8a86929 	ldrsw	x9, [x9, x8]
 bac:	b9000fe9 	str	w9, [sp, #12]
 bb0:	b94013e8 	ldr	w8, [sp, #16]
 bb4:	52800a49 	mov	w9, #0x52                  	// #82
 bb8:	d2946c0a 	mov	x10, #0xa360                	// #41824
 bbc:	f2a016ca 	movk	x10, #0xb6, lsl #16
 bc0:	f2c00aaa 	movk	x10, #0x55, lsl #32
 bc4:	f87f694a 	ldr	x10, [x10, xzr]
 bc8:	34ffa38a 	cbz	w10, 38 <trap_handler+0x38>
 bcc:	91035108 	add	x8, x8, #0xd4
 bd0:	d294700b 	mov	x11, #0xa380                	// #41856
 bd4:	f2a016cb 	movk	x11, #0xb6, lsl #16
 bd8:	f2c00aab 	movk	x11, #0x55, lsl #32
 bdc:	b87f696b 	ldr	w11, [x11, xzr]
 be0:	5100116b 	sub	w11, w11, #0x4
 be4:	6b0b011f 	cmp	w8, w11
 be8:	54ffa288 	b.hi	38 <trap_handler+0x38>  // b.pmore
 bec:	b8286949 	str	w9, [x10, x8]
 bf0:	b94013e8 	ldr	w8, [sp, #16]
 bf4:	b9400fe9 	ldr	w9, [sp, #12]
 bf8:	d2946c0a 	mov	x10, #0xa360                	// #41824
 bfc:	f2a016ca 	movk	x10, #0xb6, lsl #16
 c00:	f2c00aaa 	movk	x10, #0x55, lsl #32
 c04:	f87f694a 	ldr	x10, [x10, xzr]
 c08:	34ffa18a 	cbz	w10, 38 <trap_handler+0x38>
 c0c:	91034108 	add	x8, x8, #0xd0
 c10:	d294700b 	mov	x11, #0xa380                	// #41856
 c14:	f2a016cb 	movk	x11, #0xb6, lsl #16
 c18:	f2c00aab 	movk	x11, #0x55, lsl #32
 c1c:	b87f696b 	ldr	w11, [x11, xzr]
 c20:	5100116b 	sub	w11, w11, #0x4
 c24:	6b0b011f 	cmp	w8, w11
 c28:	54ffa088 	b.hi	38 <trap_handler+0x38>  // b.pmore
 c2c:	b8286949 	str	w9, [x10, x8]
 c30:	52809b08 	mov	w8, #0x4d8                 	// #1240
 c34:	b94013e9 	ldr	w9, [sp, #16]
 c38:	52801a0a 	mov	w10, #0xd0                  	// #208
 c3c:	0b0a0129 	add	w9, w9, w10
 c40:	2a0903e1 	mov	w1, w9
 c44:	2a0803e0 	mov	w0, w8
 c48:	d10103ff 	sub	sp, sp, #0x40
 c4c:	a90327e8 	stp	x8, x9, [sp, #48]
 c50:	a9022fea 	stp	x10, x11, [sp, #32]
 c54:	a90137ec 	stp	x12, x13, [sp, #16]
 c58:	a9003fee 	stp	x14, x15, [sp]
 c5c:	d287bb88 	mov	x8, #0x3ddc                	// #15836
 c60:	f2a00b28 	movk	x8, #0x59, lsl #16
 c64:	f2c00aa8 	movk	x8, #0x55, lsl #32
 c68:	f2e00008 	movk	x8, #0x0, lsl #48
 c6c:	d63f0100 	blr	x8
 c70:	a94327e8 	ldp	x8, x9, [sp, #48]
 c74:	a9422fea 	ldp	x10, x11, [sp, #32]
 c78:	a94137ec 	ldp	x12, x13, [sp, #16]
 c7c:	a9403fee 	ldp	x14, x15, [sp]
 c80:	910103ff 	add	sp, sp, #0x40
 c84:	aa0003e8 	mov	x8, x0
 c88:	b94013e8 	ldr	w8, [sp, #16]
 c8c:	52801c09 	mov	w9, #0xe0                  	// #224
 c90:	0b090108 	add	w8, w8, w9
 c94:	d2946209 	mov	x9, #0xa310                	// #41744
 c98:	f2a016c9 	movk	x9, #0xb6, lsl #16
 c9c:	f2c00aa9 	movk	x9, #0x55, lsl #32
 ca0:	f87f6929 	ldr	x9, [x9, xzr]
 ca4:	91000129 	add	x9, x9, #0x0
 ca8:	f83f6928 	str	x8, [x9, xzr]
 cac:	b400003f 	cbz	xzr, cb0 <func_1+0xc54>
 cb0:	910043ff 	add	sp, sp, #0x10
 cb4:	a8c153f3 	ldp	x19, x20, [sp], #16
 cb8:	a8c17bfd 	ldp	x29, x30, [sp], #16
 cbc:	d65f03c0 	ret

0000000000000cc0 <func_2>:
 cc0:	a9bf7bfd 	stp	x29, x30, [sp, #-16]!
 cc4:	910003fd 	mov	x29, sp
 cc8:	a9bf53f3 	stp	x19, x20, [sp, #-16]!
 ccc:	d2946413 	mov	x19, #0xa320                	// #41760
 cd0:	f2a016d3 	movk	x19, #0xb6, lsl #16
 cd4:	f2c00ab3 	movk	x19, #0x55, lsl #32
 cd8:	f87f6a73 	ldr	x19, [x19, xzr]
 cdc:	cb3363f3 	sub	x19, sp, x19
 ce0:	d2800014 	mov	x20, #0x0                   	// #0
 ce4:	f2a00814 	movk	x20, #0x40, lsl #16
 ce8:	eb14027f 	cmp	x19, x20
 cec:	54ff9aab 	b.lt	40 <trap_handler+0x40>  // b.tstop
 cf0:	a8c153f3 	ldp	x19, x20, [sp], #16
 cf4:	a8c17bfd 	ldp	x29, x30, [sp], #16
 cf8:	d65f03c0 	ret

0000000000000cfc <func_3>:
 cfc:	a9bf7bfd 	stp	x29, x30, [sp, #-16]!
 d00:	910003fd 	mov	x29, sp
 d04:	a9bf53f3 	stp	x19, x20, [sp, #-16]!
 d08:	d2946413 	mov	x19, #0xa320                	// #41760
 d0c:	f2a016d3 	movk	x19, #0xb6, lsl #16
 d10:	f2c00ab3 	movk	x19, #0x55, lsl #32
 d14:	f87f6a73 	ldr	x19, [x19, xzr]
 d18:	cb3363f3 	sub	x19, sp, x19
 d1c:	d2800014 	mov	x20, #0x0                   	// #0
 d20:	f2a00814 	movk	x20, #0x40, lsl #16
 d24:	eb14027f 	cmp	x19, x20
 d28:	54ff98cb 	b.lt	40 <trap_handler+0x40>  // b.tstop
 d2c:	d10103ff 	sub	sp, sp, #0x40
 d30:	a90327e8 	stp	x8, x9, [sp, #48]
 d34:	a9022fea 	stp	x10, x11, [sp, #32]
 d38:	a90137ec 	stp	x12, x13, [sp, #16]
 d3c:	a9003fee 	stp	x14, x15, [sp]
 d40:	97ffffe0 	bl	cc0 <func_2>
 d44:	a94327e8 	ldp	x8, x9, [sp, #48]
 d48:	a9422fea 	ldp	x10, x11, [sp, #32]
 d4c:	a94137ec 	ldp	x12, x13, [sp, #16]
 d50:	a9403fee 	ldp	x14, x15, [sp]
 d54:	910103ff 	add	sp, sp, #0x40
 d58:	aa0003e8 	mov	x8, x0
 d5c:	d10103ff 	sub	sp, sp, #0x40
 d60:	a90327e8 	stp	x8, x9, [sp, #48]
 d64:	a9022fea 	stp	x10, x11, [sp, #32]
 d68:	a90137ec 	stp	x12, x13, [sp, #16]
 d6c:	a9003fee 	stp	x14, x15, [sp]
 d70:	97ffffd4 	bl	cc0 <func_2>
 d74:	a94327e8 	ldp	x8, x9, [sp, #48]
 d78:	a9422fea 	ldp	x10, x11, [sp, #32]
 d7c:	a94137ec 	ldp	x12, x13, [sp, #16]
 d80:	a9403fee 	ldp	x14, x15, [sp]
 d84:	910103ff 	add	sp, sp, #0x40
 d88:	aa0003e9 	mov	x9, x0
 d8c:	a8c153f3 	ldp	x19, x20, [sp], #16
 d90:	a8c17bfd 	ldp	x29, x30, [sp], #16
 d94:	d65f03c0 	ret

0000000000000d98 <_start>:
 d98:	a9bf7bfd 	stp	x29, x30, [sp, #-16]!
 d9c:	910003fd 	mov	x29, sp
 da0:	a9bf53f3 	stp	x19, x20, [sp, #-16]!
 da4:	d2946413 	mov	x19, #0xa320                	// #41760
 da8:	f2a016d3 	movk	x19, #0xb6, lsl #16
 dac:	f2c00ab3 	movk	x19, #0x55, lsl #32
 db0:	f87f6a73 	ldr	x19, [x19, xzr]
 db4:	cb3363f3 	sub	x19, sp, x19
 db8:	d2800014 	mov	x20, #0x0                   	// #0
 dbc:	f2a00814 	movk	x20, #0x40, lsl #16
 dc0:	eb14027f 	cmp	x19, x20
 dc4:	54ff93eb 	b.lt	40 <trap_handler+0x40>  // b.tstop
 dc8:	d10103ff 	sub	sp, sp, #0x40
 dcc:	a90327e8 	stp	x8, x9, [sp, #48]
 dd0:	a9022fea 	stp	x10, x11, [sp, #32]
 dd4:	a90137ec 	stp	x12, x13, [sp, #16]
 dd8:	a9003fee 	stp	x14, x15, [sp]
 ddc:	97fffca0 	bl	5c <func_1>
 de0:	a94327e8 	ldp	x8, x9, [sp, #48]
 de4:	a9422fea 	ldp	x10, x11, [sp, #32]
 de8:	a94137ec 	ldp	x12, x13, [sp, #16]
 dec:	a9403fee 	ldp	x14, x15, [sp]
 df0:	910103ff 	add	sp, sp, #0x40
 df4:	aa0003e8 	mov	x8, x0
 df8:	d10103ff 	sub	sp, sp, #0x40
 dfc:	a90327e8 	stp	x8, x9, [sp, #48]
 e00:	a9022fea 	stp	x10, x11, [sp, #32]
 e04:	a90137ec 	stp	x12, x13, [sp, #16]
 e08:	a9003fee 	stp	x14, x15, [sp]
 e0c:	97ffffbc 	bl	cfc <func_3>
 e10:	a94327e8 	ldp	x8, x9, [sp, #48]
 e14:	a9422fea 	ldp	x10, x11, [sp, #32]
 e18:	a94137ec 	ldp	x12, x13, [sp, #16]
 e1c:	a9403fee 	ldp	x14, x15, [sp]
 e20:	910103ff 	add	sp, sp, #0x40
 e24:	aa0003e9 	mov	x9, x0
 e28:	a8c153f3 	ldp	x19, x20, [sp], #16
 e2c:	a8c17bfd 	ldp	x29, x30, [sp], #16
 e30:	d65f03c0 	ret
